
bin/avr/wii_esc_ng.elf:     file format elf32-avr


Disassembly of section .text:

00000000 <__vectors>:
       0:	81 c0       	rjmp	.+258    	; 0x104 <__ctors_end>
       2:	e6 c0       	rjmp	.+460    	; 0x1d0 <__vector_1>
       4:	9a c0       	rjmp	.+308    	; 0x13a <__bad_interrupt>
       6:	99 c0       	rjmp	.+306    	; 0x13a <__bad_interrupt>
       8:	98 c0       	rjmp	.+304    	; 0x13a <__bad_interrupt>
       a:	97 c0       	rjmp	.+302    	; 0x13a <__bad_interrupt>
       c:	96 c0       	rjmp	.+300    	; 0x13a <__bad_interrupt>
       e:	95 c0       	rjmp	.+298    	; 0x13a <__bad_interrupt>
      10:	94 c0       	rjmp	.+296    	; 0x13a <__bad_interrupt>
      12:	93 c0       	rjmp	.+294    	; 0x13a <__bad_interrupt>
      14:	92 c0       	rjmp	.+292    	; 0x13a <__bad_interrupt>
      16:	91 c0       	rjmp	.+290    	; 0x13a <__bad_interrupt>
      18:	90 c0       	rjmp	.+288    	; 0x13a <__bad_interrupt>
      1a:	8f c0       	rjmp	.+286    	; 0x13a <__bad_interrupt>
      1c:	8e c0       	rjmp	.+284    	; 0x13a <__bad_interrupt>
      1e:	8d c0       	rjmp	.+282    	; 0x13a <__bad_interrupt>
      20:	8c c0       	rjmp	.+280    	; 0x13a <__bad_interrupt>
      22:	8b c0       	rjmp	.+278    	; 0x13a <__bad_interrupt>
      24:	8a c0       	rjmp	.+276    	; 0x13a <__bad_interrupt>
      26:	6d c1       	rjmp	.+730    	; 0x302 <set_pwm_on_comp_on(unsigned char)+0x10>
      28:	70 c1       	rjmp	.+736    	; 0x30a <set_pwm_on_comp_on(unsigned char)+0x18>
      2a:	6f c1       	rjmp	.+734    	; 0x30a <set_pwm_on_comp_on(unsigned char)+0x18>
      2c:	6c c1       	rjmp	.+728    	; 0x306 <set_pwm_on_comp_on(unsigned char)+0x14>
      2e:	6b c1       	rjmp	.+726    	; 0x306 <set_pwm_on_comp_on(unsigned char)+0x14>
      30:	68 c1       	rjmp	.+720    	; 0x302 <set_pwm_on_comp_on(unsigned char)+0x10>
      32:	68 c1       	rjmp	.+720    	; 0x304 <set_pwm_on_comp_on(unsigned char)+0x12>
      34:	67 c1       	rjmp	.+718    	; 0x304 <set_pwm_on_comp_on(unsigned char)+0x12>
      36:	65 c1       	rjmp	.+714    	; 0x302 <set_pwm_on_comp_on(unsigned char)+0x10>
      38:	66 c1       	rjmp	.+716    	; 0x306 <set_pwm_on_comp_on(unsigned char)+0x14>
      3a:	65 c1       	rjmp	.+714    	; 0x306 <set_pwm_on_comp_on(unsigned char)+0x14>
      3c:	66 c1       	rjmp	.+716    	; 0x30a <set_pwm_on_comp_on(unsigned char)+0x18>
      3e:	65 c1       	rjmp	.+714    	; 0x30a <set_pwm_on_comp_on(unsigned char)+0x18>
      40:	60 c1       	rjmp	.+704    	; 0x302 <set_pwm_on_comp_on(unsigned char)+0x10>
      42:	6f c1       	rjmp	.+734    	; 0x322 <set_pwm_on(unsigned char)+0x14>
      44:	73 c1       	rjmp	.+742    	; 0x32c <set_pwm_on(unsigned char)+0x1e>
      46:	72 c1       	rjmp	.+740    	; 0x32c <set_pwm_on(unsigned char)+0x1e>
      48:	6f c1       	rjmp	.+734    	; 0x328 <set_pwm_on(unsigned char)+0x1a>
      4a:	6e c1       	rjmp	.+732    	; 0x328 <set_pwm_on(unsigned char)+0x1a>
      4c:	6a c1       	rjmp	.+724    	; 0x322 <set_pwm_on(unsigned char)+0x14>
      4e:	6b c1       	rjmp	.+726    	; 0x326 <set_pwm_on(unsigned char)+0x18>
      50:	6a c1       	rjmp	.+724    	; 0x326 <set_pwm_on(unsigned char)+0x18>
      52:	67 c1       	rjmp	.+718    	; 0x322 <set_pwm_on(unsigned char)+0x14>
      54:	69 c1       	rjmp	.+722    	; 0x328 <set_pwm_on(unsigned char)+0x1a>
      56:	68 c1       	rjmp	.+720    	; 0x328 <set_pwm_on(unsigned char)+0x1a>
      58:	69 c1       	rjmp	.+722    	; 0x32c <set_pwm_on(unsigned char)+0x1e>
      5a:	68 c1       	rjmp	.+720    	; 0x32c <set_pwm_on(unsigned char)+0x1e>
      5c:	62 c1       	rjmp	.+708    	; 0x322 <set_pwm_on(unsigned char)+0x14>
      5e:	70 c1       	rjmp	.+736    	; 0x340 <set_pwm_off_comp_on(unsigned char)+0x10>
      60:	73 c1       	rjmp	.+742    	; 0x348 <set_pwm_off_comp_on(unsigned char)+0x18>
      62:	72 c1       	rjmp	.+740    	; 0x348 <set_pwm_off_comp_on(unsigned char)+0x18>
      64:	6f c1       	rjmp	.+734    	; 0x344 <set_pwm_off_comp_on(unsigned char)+0x14>
      66:	6e c1       	rjmp	.+732    	; 0x344 <set_pwm_off_comp_on(unsigned char)+0x14>
      68:	6b c1       	rjmp	.+726    	; 0x340 <set_pwm_off_comp_on(unsigned char)+0x10>
      6a:	6b c1       	rjmp	.+726    	; 0x342 <set_pwm_off_comp_on(unsigned char)+0x12>
      6c:	6a c1       	rjmp	.+724    	; 0x342 <set_pwm_off_comp_on(unsigned char)+0x12>
      6e:	68 c1       	rjmp	.+720    	; 0x340 <set_pwm_off_comp_on(unsigned char)+0x10>
      70:	69 c1       	rjmp	.+722    	; 0x344 <set_pwm_off_comp_on(unsigned char)+0x14>
      72:	68 c1       	rjmp	.+720    	; 0x344 <set_pwm_off_comp_on(unsigned char)+0x14>
      74:	69 c1       	rjmp	.+722    	; 0x348 <set_pwm_off_comp_on(unsigned char)+0x18>
      76:	68 c1       	rjmp	.+720    	; 0x348 <set_pwm_off_comp_on(unsigned char)+0x18>
      78:	63 c1       	rjmp	.+710    	; 0x340 <set_pwm_off_comp_on(unsigned char)+0x10>
      7a:	82 c1       	rjmp	.+772    	; 0x380 <change_comm_state(unsigned char)+0x28>
      7c:	87 c1       	rjmp	.+782    	; 0x38c <change_comm_state(unsigned char)+0x34>
      7e:	8d c1       	rjmp	.+794    	; 0x39a <change_comm_state(unsigned char)+0x42>
      80:	92 c1       	rjmp	.+804    	; 0x3a6 <change_comm_state(unsigned char)+0x4e>
      82:	98 c1       	rjmp	.+816    	; 0x3b4 <change_comm_state(unsigned char)+0x5c>
      84:	9c c1       	rjmp	.+824    	; 0x3be <change_comm_state(unsigned char)+0x66>
      86:	7b c1       	rjmp	.+758    	; 0x37e <change_comm_state(unsigned char)+0x26>
      88:	7a c1       	rjmp	.+756    	; 0x37e <change_comm_state(unsigned char)+0x26>
      8a:	a0 c1       	rjmp	.+832    	; 0x3cc <change_comm_state(unsigned char)+0x74>
      8c:	a5 c1       	rjmp	.+842    	; 0x3d8 <change_comm_state(unsigned char)+0x80>
      8e:	ac c1       	rjmp	.+856    	; 0x3e8 <change_comm_state(unsigned char)+0x90>
      90:	b1 c1       	rjmp	.+866    	; 0x3f4 <change_comm_state(unsigned char)+0x9c>
      92:	b9 c1       	rjmp	.+882    	; 0x406 <change_comm_state(unsigned char)+0xae>
      94:	6c c1       	rjmp	.+728    	; 0x36e <change_comm_state(unsigned char)+0x16>
      96:	d5 c1       	rjmp	.+938    	; 0x442 <set_ac_state(unsigned char)+0x1e>
      98:	d2 c1       	rjmp	.+932    	; 0x43e <set_ac_state(unsigned char)+0x1a>
      9a:	ce c1       	rjmp	.+924    	; 0x438 <set_ac_state(unsigned char)+0x14>
      9c:	d2 c1       	rjmp	.+932    	; 0x442 <set_ac_state(unsigned char)+0x1e>
      9e:	cf c1       	rjmp	.+926    	; 0x43e <set_ac_state(unsigned char)+0x1a>
      a0:	cb c1       	rjmp	.+918    	; 0x438 <set_ac_state(unsigned char)+0x14>
      a2:	cc c1       	rjmp	.+920    	; 0x43c <set_ac_state(unsigned char)+0x18>
      a4:	cb c1       	rjmp	.+918    	; 0x43c <set_ac_state(unsigned char)+0x18>
      a6:	c8 c1       	rjmp	.+912    	; 0x438 <set_ac_state(unsigned char)+0x14>
      a8:	ca c1       	rjmp	.+916    	; 0x43e <set_ac_state(unsigned char)+0x1a>
      aa:	cb c1       	rjmp	.+918    	; 0x442 <set_ac_state(unsigned char)+0x1e>
      ac:	c5 c1       	rjmp	.+906    	; 0x438 <set_ac_state(unsigned char)+0x14>
      ae:	c7 c1       	rjmp	.+910    	; 0x43e <set_ac_state(unsigned char)+0x1a>
      b0:	c8 c1       	rjmp	.+912    	; 0x442 <set_ac_state(unsigned char)+0x1e>
      b2:	00 c6       	rjmp	.+3072   	; 0xcb4 <loop+0x466>
      b4:	08 c5       	rjmp	.+2576   	; 0xac6 <loop+0x278>
      b6:	08 c5       	rjmp	.+2576   	; 0xac8 <loop+0x27a>
      b8:	27 c5       	rjmp	.+2638   	; 0xb08 <loop+0x2ba>
      ba:	aa c5       	rjmp	.+2900   	; 0xc10 <loop+0x3c2>
      bc:	06 c6       	rjmp	.+3084   	; 0xcca <loop+0x47c>
      be:	4a c5       	rjmp	.+2708   	; 0xb54 <loop+0x306>
      c0:	4a c5       	rjmp	.+2708   	; 0xb56 <loop+0x308>
      c2:	fa c5       	rjmp	.+3060   	; 0xcb8 <loop+0x46a>

000000c4 <zc_filter_table>:
      c4:	00 02 04 06 08 0a 0c 0e 10 12 14 16 18 1a 1c 1e     ................
      d4:	20 22 24 26 28 2a 2c 2e 30 32 34 36 38 3a 3c 3e      "$&(*,.02468:<>
      e4:	00 02 04 06 08 0a 0c 0e 10 12 01 16 01 1a 1c 1e     ................
      f4:	20 22 24 26 01 2a 2c 2e 01 01 01 36 38 3a 3c 3e      "$&.*,....68:<>

00000104 <__ctors_end>:
     104:	11 24       	eor	r1, r1
     106:	1f be       	out	0x3f, r1	; 63
     108:	cf e5       	ldi	r28, 0x5F	; 95
     10a:	d4 e0       	ldi	r29, 0x04	; 4
     10c:	de bf       	out	0x3e, r29	; 62
     10e:	cd bf       	out	0x3d, r28	; 61

00000110 <__do_copy_data>:
     110:	10 e0       	ldi	r17, 0x00	; 0
     112:	a0 e6       	ldi	r26, 0x60	; 96
     114:	b0 e0       	ldi	r27, 0x00	; 0
     116:	e8 ea       	ldi	r30, 0xA8	; 168
     118:	f1 e1       	ldi	r31, 0x11	; 17
     11a:	02 c0       	rjmp	.+4      	; 0x120 <.do_copy_data_start>

0000011c <.do_copy_data_loop>:
     11c:	05 90       	lpm	r0, Z+
     11e:	0d 92       	st	X+, r0

00000120 <.do_copy_data_start>:
     120:	aa 36       	cpi	r26, 0x6A	; 106
     122:	b1 07       	cpc	r27, r17
     124:	d9 f7       	brne	.-10     	; 0x11c <.do_copy_data_loop>

00000126 <__do_clear_bss>:
     126:	10 e0       	ldi	r17, 0x00	; 0
     128:	aa e6       	ldi	r26, 0x6A	; 106
     12a:	b0 e0       	ldi	r27, 0x00	; 0
     12c:	01 c0       	rjmp	.+2      	; 0x130 <.do_clear_bss_start>

0000012e <.do_clear_bss_loop>:
     12e:	1d 92       	st	X+, r1

00000130 <.do_clear_bss_start>:
     130:	aa 3c       	cpi	r26, 0xCA	; 202
     132:	b1 07       	cpc	r27, r17
     134:	e1 f7       	brne	.-8      	; 0x12e <.do_clear_bss_loop>
     136:	6b d7       	rcall	.+3798   	; 0x100e <main>
     138:	35 c8       	rjmp	.-3990   	; 0xfffff1a4 <__eeprom_end+0xff7ef1a4>

0000013a <__bad_interrupt>:
     13a:	62 cf       	rjmp	.-316    	; 0x0 <__vectors>

0000013c <timer_expired(timer_big*, unsigned int)>:
     13c:	fc 01       	movw	r30, r24
     13e:	80 85       	ldd	r24, Z+8	; 0x08
     140:	91 85       	ldd	r25, Z+9	; 0x09
     142:	9b 01       	movw	r18, r22
     144:	28 1b       	sub	r18, r24
     146:	39 0b       	sbc	r19, r25
     148:	c9 01       	movw	r24, r18
     14a:	71 87       	std	Z+9, r23	; 0x09
     14c:	60 87       	std	Z+8, r22	; 0x08
     14e:	20 81       	ld	r18, Z
     150:	31 81       	ldd	r19, Z+1	; 0x01
     152:	42 81       	ldd	r20, Z+2	; 0x02
     154:	53 81       	ldd	r21, Z+3	; 0x03
     156:	a0 e0       	ldi	r26, 0x00	; 0
     158:	b0 e0       	ldi	r27, 0x00	; 0
     15a:	82 17       	cp	r24, r18
     15c:	93 07       	cpc	r25, r19
     15e:	a4 07       	cpc	r26, r20
     160:	b5 07       	cpc	r27, r21
     162:	50 f4       	brcc	.+20     	; 0x178 <timer_expired(timer_big*, unsigned int)+0x3c>
     164:	28 1b       	sub	r18, r24
     166:	39 0b       	sbc	r19, r25
     168:	4a 0b       	sbc	r20, r26
     16a:	5b 0b       	sbc	r21, r27
     16c:	20 83       	st	Z, r18
     16e:	31 83       	std	Z+1, r19	; 0x01
     170:	42 83       	std	Z+2, r20	; 0x02
     172:	53 83       	std	Z+3, r21	; 0x03
     174:	80 e0       	ldi	r24, 0x00	; 0
     176:	08 95       	ret
     178:	84 81       	ldd	r24, Z+4	; 0x04
     17a:	95 81       	ldd	r25, Z+5	; 0x05
     17c:	a6 81       	ldd	r26, Z+6	; 0x06
     17e:	b7 81       	ldd	r27, Z+7	; 0x07
     180:	80 83       	st	Z, r24
     182:	91 83       	std	Z+1, r25	; 0x01
     184:	a2 83       	std	Z+2, r26	; 0x02
     186:	b3 83       	std	Z+3, r27	; 0x03
     188:	81 e0       	ldi	r24, 0x01	; 1
     18a:	08 95       	ret

0000018c <__delay_us(unsigned int)>:
     18c:	ac 01       	movw	r20, r24
     18e:	44 0f       	add	r20, r20
     190:	55 1f       	adc	r21, r21
     192:	44 50       	subi	r20, 0x04	; 4
     194:	50 40       	sbci	r21, 0x00	; 0
     196:	8f b7       	in	r24, 0x3f	; 63
     198:	f8 94       	cli
     19a:	6c b5       	in	r22, 0x2c	; 44
     19c:	7d b5       	in	r23, 0x2d	; 45
     19e:	8f bf       	out	0x3f, r24	; 63
     1a0:	2f b7       	in	r18, 0x3f	; 63
     1a2:	f8 94       	cli
     1a4:	8c b5       	in	r24, 0x2c	; 44
     1a6:	9d b5       	in	r25, 0x2d	; 45
     1a8:	2f bf       	out	0x3f, r18	; 63
     1aa:	86 1b       	sub	r24, r22
     1ac:	97 0b       	sbc	r25, r23
     1ae:	84 17       	cp	r24, r20
     1b0:	95 07       	cpc	r25, r21
     1b2:	b0 f3       	brcs	.-20     	; 0x1a0 <__delay_us(unsigned int)+0x14>
     1b4:	08 95       	ret

000001b6 <__delay_ms(unsigned int)>:
     1b6:	cf 93       	push	r28
     1b8:	df 93       	push	r29
     1ba:	ec 01       	movw	r28, r24
     1bc:	00 97       	sbiw	r24, 0x00	; 0
     1be:	29 f0       	breq	.+10     	; 0x1ca <__delay_ms(unsigned int)+0x14>
     1c0:	88 ee       	ldi	r24, 0xE8	; 232
     1c2:	93 e0       	ldi	r25, 0x03	; 3
     1c4:	e3 df       	rcall	.-58     	; 0x18c <__delay_us(unsigned int)>
     1c6:	21 97       	sbiw	r28, 0x01	; 1
     1c8:	d9 f7       	brne	.-10     	; 0x1c0 <__delay_ms(unsigned int)+0xa>
     1ca:	df 91       	pop	r29
     1cc:	cf 91       	pop	r28
     1ce:	08 95       	ret

000001d0 <__vector_1>:
     1d0:	1f 92       	push	r1
     1d2:	0f 92       	push	r0
     1d4:	0f b6       	in	r0, 0x3f	; 63
     1d6:	0f 92       	push	r0
     1d8:	11 24       	eor	r1, r1
     1da:	2f 93       	push	r18
     1dc:	3f 93       	push	r19
     1de:	8f 93       	push	r24
     1e0:	9f 93       	push	r25
     1e2:	2c b5       	in	r18, 0x2c	; 44
     1e4:	3d b5       	in	r19, 0x2d	; 45
     1e6:	82 99       	sbic	0x10, 2	; 16
     1e8:	16 c0       	rjmp	.+44     	; 0x216 <__vector_1+0x46>
     1ea:	80 91 92 00 	lds	r24, 0x0092
     1ee:	90 91 93 00 	lds	r25, 0x0093
     1f2:	28 1b       	sub	r18, r24
     1f4:	39 0b       	sbc	r19, r25
     1f6:	30 93 91 00 	sts	0x0091, r19
     1fa:	20 93 90 00 	sts	0x0090, r18
     1fe:	8c e4       	ldi	r24, 0x4C	; 76
     200:	80 93 7b 00 	sts	0x007B, r24
     204:	9f 91       	pop	r25
     206:	8f 91       	pop	r24
     208:	3f 91       	pop	r19
     20a:	2f 91       	pop	r18
     20c:	0f 90       	pop	r0
     20e:	0f be       	out	0x3f, r0	; 63
     210:	0f 90       	pop	r0
     212:	1f 90       	pop	r1
     214:	18 95       	reti
     216:	30 93 93 00 	sts	0x0093, r19
     21a:	20 93 92 00 	sts	0x0092, r18
     21e:	f2 cf       	rjmp	.-28     	; 0x204 <__vector_1+0x34>

00000220 <filter_ppm_data()>:
     220:	80 91 7b 00 	lds	r24, 0x007B
     224:	88 23       	and	r24, r24
     226:	51 f1       	breq	.+84     	; 0x27c <filter_ppm_data()+0x5c>
     228:	20 91 90 00 	lds	r18, 0x0090
     22c:	30 91 91 00 	lds	r19, 0x0091
     230:	80 91 90 00 	lds	r24, 0x0090
     234:	90 91 91 00 	lds	r25, 0x0091
     238:	28 17       	cp	r18, r24
     23a:	39 07       	cpc	r19, r25
     23c:	a9 f7       	brne	.-22     	; 0x228 <filter_ppm_data()+0x8>
     23e:	80 91 7c 00 	lds	r24, 0x007C
     242:	90 91 7d 00 	lds	r25, 0x007D
     246:	28 17       	cp	r18, r24
     248:	39 07       	cpc	r19, r25
     24a:	c8 f4       	brcc	.+50     	; 0x27e <filter_ppm_data()+0x5e>
     24c:	80 91 c4 00 	lds	r24, 0x00C4
     250:	90 91 c5 00 	lds	r25, 0x00C5
     254:	82 17       	cp	r24, r18
     256:	93 07       	cpc	r25, r19
     258:	88 f0       	brcs	.+34     	; 0x27c <filter_ppm_data()+0x5c>
     25a:	80 91 c6 00 	lds	r24, 0x00C6
     25e:	90 91 c7 00 	lds	r25, 0x00C7
     262:	28 17       	cp	r18, r24
     264:	39 07       	cpc	r19, r25
     266:	50 f0       	brcs	.+20     	; 0x27c <filter_ppm_data()+0x5c>
     268:	22 0f       	add	r18, r18
     26a:	33 1f       	adc	r19, r19
     26c:	22 0f       	add	r18, r18
     26e:	33 1f       	adc	r19, r19
     270:	22 0f       	add	r18, r18
     272:	33 1f       	adc	r19, r19
     274:	30 93 7a 00 	sts	0x007A, r19
     278:	20 93 79 00 	sts	0x0079, r18
     27c:	08 95       	ret
     27e:	80 91 7e 00 	lds	r24, 0x007E
     282:	90 91 7f 00 	lds	r25, 0x007F
     286:	82 17       	cp	r24, r18
     288:	93 07       	cpc	r25, r19
     28a:	00 f3       	brcs	.-64     	; 0x24c <filter_ppm_data()+0x2c>
     28c:	30 93 7a 00 	sts	0x007A, r19
     290:	20 93 79 00 	sts	0x0079, r18
     294:	08 95       	ret

00000296 <init_os125()>:
     296:	8f ef       	ldi	r24, 0xFF	; 255
     298:	90 e0       	ldi	r25, 0x00	; 0
     29a:	90 93 c1 00 	sts	0x00C1, r25
     29e:	80 93 c0 00 	sts	0x00C0, r24
     2a2:	8e e6       	ldi	r24, 0x6E	; 110
     2a4:	90 e0       	ldi	r25, 0x00	; 0
     2a6:	90 93 c3 00 	sts	0x00C3, r25
     2aa:	80 93 c2 00 	sts	0x00C2, r24
     2ae:	8e ef       	ldi	r24, 0xFE	; 254
     2b0:	91 e0       	ldi	r25, 0x01	; 1
     2b2:	90 93 c5 00 	sts	0x00C5, r25
     2b6:	80 93 c4 00 	sts	0x00C4, r24
     2ba:	8c ed       	ldi	r24, 0xDC	; 220
     2bc:	90 e0       	ldi	r25, 0x00	; 0
     2be:	90 93 c7 00 	sts	0x00C7, r25
     2c2:	80 93 c6 00 	sts	0x00C6, r24
     2c6:	08 95       	ret

000002c8 <rx_get_frame()>:
     2c8:	10 92 7b 00 	sts	0x007B, r1
     2cc:	10 92 7a 00 	sts	0x007A, r1
     2d0:	10 92 79 00 	sts	0x0079, r1
     2d4:	a5 df       	rcall	.-182    	; 0x220 <filter_ppm_data()>
     2d6:	80 91 79 00 	lds	r24, 0x0079
     2da:	90 91 7a 00 	lds	r25, 0x007A
     2de:	00 97       	sbiw	r24, 0x00	; 0
     2e0:	c9 f3       	breq	.-14     	; 0x2d4 <rx_get_frame()+0xc>
     2e2:	08 95       	ret

000002e4 <free_spin()>:
     2e4:	95 98       	cbi	0x12, 5	; 18
     2e6:	ac 98       	cbi	0x15, 4	; 21
     2e8:	c0 98       	cbi	0x18, 0	; 24
     2ea:	94 9a       	sbi	0x12, 4	; 18
     2ec:	ad 9a       	sbi	0x15, 5	; 21
     2ee:	ab 9a       	sbi	0x15, 3	; 21
     2f0:	08 95       	ret

000002f2 <set_pwm_on_comp_on(unsigned char)>:
     2f2:	e8 2f       	mov	r30, r24
     2f4:	f0 e0       	ldi	r31, 0x00	; 0
     2f6:	ee 30       	cpi	r30, 0x0E	; 14
     2f8:	f1 05       	cpc	r31, r1
     2fa:	20 f4       	brcc	.+8      	; 0x304 <set_pwm_on_comp_on(unsigned char)+0x12>
     2fc:	ed 5e       	subi	r30, 0xED	; 237
     2fe:	ff 4f       	sbci	r31, 0xFF	; 255
     300:	09 94       	ijmp
     302:	c0 9a       	sbi	0x18, 0	; 24
     304:	08 95       	ret
     306:	95 9a       	sbi	0x12, 5	; 18
     308:	08 95       	ret
     30a:	ac 9a       	sbi	0x15, 4	; 21
     30c:	08 95       	ret

0000030e <set_pwm_on(unsigned char)>:
     30e:	03 fd       	sbrc	r16, 3
     310:	88 60       	ori	r24, 0x08	; 8
     312:	e8 2f       	mov	r30, r24
     314:	f0 e0       	ldi	r31, 0x00	; 0
     316:	ee 30       	cpi	r30, 0x0E	; 14
     318:	f1 05       	cpc	r31, r1
     31a:	28 f4       	brcc	.+10     	; 0x326 <set_pwm_on(unsigned char)+0x18>
     31c:	ef 5d       	subi	r30, 0xDF	; 223
     31e:	ff 4f       	sbci	r31, 0xFF	; 255
     320:	09 94       	ijmp
     322:	ab 9a       	sbi	0x15, 3	; 21
     324:	e6 cf       	rjmp	.-52     	; 0x2f2 <set_pwm_on_comp_on(unsigned char)>
     326:	08 95       	ret
     328:	94 9a       	sbi	0x12, 4	; 18
     32a:	e3 cf       	rjmp	.-58     	; 0x2f2 <set_pwm_on_comp_on(unsigned char)>
     32c:	ad 9a       	sbi	0x15, 5	; 21
     32e:	e1 cf       	rjmp	.-62     	; 0x2f2 <set_pwm_on_comp_on(unsigned char)>

00000330 <set_pwm_off_comp_on(unsigned char)>:
     330:	e8 2f       	mov	r30, r24
     332:	f0 e0       	ldi	r31, 0x00	; 0
     334:	ee 30       	cpi	r30, 0x0E	; 14
     336:	f1 05       	cpc	r31, r1
     338:	20 f4       	brcc	.+8      	; 0x342 <set_pwm_off_comp_on(unsigned char)+0x12>
     33a:	e1 5d       	subi	r30, 0xD1	; 209
     33c:	ff 4f       	sbci	r31, 0xFF	; 255
     33e:	09 94       	ijmp
     340:	ab 98       	cbi	0x15, 3	; 21
     342:	08 95       	ret
     344:	94 98       	cbi	0x12, 4	; 18
     346:	08 95       	ret
     348:	ad 98       	cbi	0x15, 5	; 21
     34a:	08 95       	ret

0000034c <set_pwm_off(unsigned char)>:
     34c:	95 98       	cbi	0x12, 5	; 18
     34e:	ac 98       	cbi	0x15, 4	; 21
     350:	c0 98       	cbi	0x18, 0	; 24
     352:	03 fd       	sbrc	r16, 3
     354:	88 60       	ori	r24, 0x08	; 8
     356:	ec cf       	rjmp	.-40     	; 0x330 <set_pwm_off_comp_on(unsigned char)>

00000358 <change_comm_state(unsigned char)>:
     358:	90 2f       	mov	r25, r16
     35a:	03 fd       	sbrc	r16, 3
     35c:	88 60       	ori	r24, 0x08	; 8
     35e:	e8 2f       	mov	r30, r24
     360:	f0 e0       	ldi	r31, 0x00	; 0
     362:	ee 30       	cpi	r30, 0x0E	; 14
     364:	f1 05       	cpc	r31, r1
     366:	58 f4       	brcc	.+22     	; 0x37e <change_comm_state(unsigned char)+0x26>
     368:	e3 5c       	subi	r30, 0xC3	; 195
     36a:	ff 4f       	sbci	r31, 0xFF	; 255
     36c:	09 94       	ijmp
     36e:	ad 9a       	sbi	0x15, 5	; 21
     370:	ac 98       	cbi	0x15, 4	; 21
     372:	95 98       	cbi	0x12, 5	; 18
     374:	94 fd       	sbrc	r25, 4
     376:	54 c0       	rjmp	.+168    	; 0x420 <change_comm_state(unsigned char)+0xc8>
     378:	ab 98       	cbi	0x15, 3	; 21
     37a:	87 e0       	ldi	r24, 0x07	; 7
     37c:	87 b9       	out	0x07, r24	; 7
     37e:	08 95       	ret
     380:	ad 9a       	sbi	0x15, 5	; 21
     382:	ab 9a       	sbi	0x15, 3	; 21
     384:	94 98       	cbi	0x12, 4	; 18
     386:	87 e0       	ldi	r24, 0x07	; 7
     388:	87 b9       	out	0x07, r24	; 7
     38a:	08 95       	ret
     38c:	ab 9a       	sbi	0x15, 3	; 21
     38e:	c0 98       	cbi	0x18, 0	; 24
     390:	95 98       	cbi	0x12, 5	; 18
     392:	94 ff       	sbrs	r25, 4
     394:	43 c0       	rjmp	.+134    	; 0x41c <change_comm_state(unsigned char)+0xc4>
     396:	ac 9a       	sbi	0x15, 4	; 21
     398:	25 c0       	rjmp	.+74     	; 0x3e4 <change_comm_state(unsigned char)+0x8c>
     39a:	ad 9a       	sbi	0x15, 5	; 21
     39c:	94 9a       	sbi	0x12, 4	; 18
     39e:	ab 98       	cbi	0x15, 3	; 21
     3a0:	86 e0       	ldi	r24, 0x06	; 6
     3a2:	87 b9       	out	0x07, r24	; 7
     3a4:	08 95       	ret
     3a6:	ad 9a       	sbi	0x15, 5	; 21
     3a8:	ac 98       	cbi	0x15, 4	; 21
     3aa:	95 98       	cbi	0x12, 5	; 18
     3ac:	94 ff       	sbrs	r25, 4
     3ae:	34 c0       	rjmp	.+104    	; 0x418 <change_comm_state(unsigned char)+0xc0>
     3b0:	95 9a       	sbi	0x12, 5	; 18
     3b2:	1d c0       	rjmp	.+58     	; 0x3ee <change_comm_state(unsigned char)+0x96>
     3b4:	ab 9a       	sbi	0x15, 3	; 21
     3b6:	94 9a       	sbi	0x12, 4	; 18
     3b8:	ad 98       	cbi	0x15, 5	; 21
     3ba:	17 b8       	out	0x07, r1	; 7
     3bc:	08 95       	ret
     3be:	94 9a       	sbi	0x12, 4	; 18
     3c0:	95 98       	cbi	0x12, 5	; 18
     3c2:	ac 98       	cbi	0x15, 4	; 21
     3c4:	94 ff       	sbrs	r25, 4
     3c6:	26 c0       	rjmp	.+76     	; 0x414 <change_comm_state(unsigned char)+0xbc>
     3c8:	c0 9a       	sbi	0x18, 0	; 24
     3ca:	1a c0       	rjmp	.+52     	; 0x400 <change_comm_state(unsigned char)+0xa8>
     3cc:	94 9a       	sbi	0x12, 4	; 18
     3ce:	ab 9a       	sbi	0x15, 3	; 21
     3d0:	ad 98       	cbi	0x15, 5	; 21
     3d2:	86 e0       	ldi	r24, 0x06	; 6
     3d4:	87 b9       	out	0x07, r24	; 7
     3d6:	08 95       	ret
     3d8:	ab 9a       	sbi	0x15, 3	; 21
     3da:	c0 98       	cbi	0x18, 0	; 24
     3dc:	ac 98       	cbi	0x15, 4	; 21
     3de:	94 fd       	sbrc	r25, 4
     3e0:	17 c0       	rjmp	.+46     	; 0x410 <change_comm_state(unsigned char)+0xb8>
     3e2:	94 98       	cbi	0x12, 4	; 18
     3e4:	17 b8       	out	0x07, r1	; 7
     3e6:	08 95       	ret
     3e8:	94 9a       	sbi	0x12, 4	; 18
     3ea:	ad 9a       	sbi	0x15, 5	; 21
     3ec:	ab 98       	cbi	0x15, 3	; 21
     3ee:	87 e0       	ldi	r24, 0x07	; 7
     3f0:	87 b9       	out	0x07, r24	; 7
     3f2:	08 95       	ret
     3f4:	94 9a       	sbi	0x12, 4	; 18
     3f6:	95 98       	cbi	0x12, 5	; 18
     3f8:	ac 98       	cbi	0x15, 4	; 21
     3fa:	94 fd       	sbrc	r25, 4
     3fc:	07 c0       	rjmp	.+14     	; 0x40c <change_comm_state(unsigned char)+0xb4>
     3fe:	ad 98       	cbi	0x15, 5	; 21
     400:	86 e0       	ldi	r24, 0x06	; 6
     402:	87 b9       	out	0x07, r24	; 7
     404:	08 95       	ret
     406:	ab 9a       	sbi	0x15, 3	; 21
     408:	ad 9a       	sbi	0x15, 5	; 21
     40a:	eb cf       	rjmp	.-42     	; 0x3e2 <change_comm_state(unsigned char)+0x8a>
     40c:	ac 9a       	sbi	0x15, 4	; 21
     40e:	f8 cf       	rjmp	.-16     	; 0x400 <change_comm_state(unsigned char)+0xa8>
     410:	95 9a       	sbi	0x12, 5	; 18
     412:	e8 cf       	rjmp	.-48     	; 0x3e4 <change_comm_state(unsigned char)+0x8c>
     414:	ab 98       	cbi	0x15, 3	; 21
     416:	f4 cf       	rjmp	.-24     	; 0x400 <change_comm_state(unsigned char)+0xa8>
     418:	94 98       	cbi	0x12, 4	; 18
     41a:	e9 cf       	rjmp	.-46     	; 0x3ee <change_comm_state(unsigned char)+0x96>
     41c:	ad 98       	cbi	0x15, 5	; 21
     41e:	e2 cf       	rjmp	.-60     	; 0x3e4 <change_comm_state(unsigned char)+0x8c>
     420:	c0 9a       	sbi	0x18, 0	; 24
     422:	ab cf       	rjmp	.-170    	; 0x37a <change_comm_state(unsigned char)+0x22>

00000424 <set_ac_state(unsigned char)>:
     424:	03 fd       	sbrc	r16, 3
     426:	88 60       	ori	r24, 0x08	; 8
     428:	e8 2f       	mov	r30, r24
     42a:	f0 e0       	ldi	r31, 0x00	; 0
     42c:	ee 30       	cpi	r30, 0x0E	; 14
     42e:	f1 05       	cpc	r31, r1
     430:	28 f4       	brcc	.+10     	; 0x43c <set_ac_state(unsigned char)+0x18>
     432:	e5 5b       	subi	r30, 0xB5	; 181
     434:	ff 4f       	sbci	r31, 0xFF	; 255
     436:	09 94       	ijmp
     438:	86 e0       	ldi	r24, 0x06	; 6
     43a:	87 b9       	out	0x07, r24	; 7
     43c:	08 95       	ret
     43e:	17 b8       	out	0x07, r1	; 7
     440:	08 95       	ret
     442:	87 e0       	ldi	r24, 0x07	; 7
     444:	87 b9       	out	0x07, r24	; 7
     446:	08 95       	ret

00000448 <set_comm_state()>:
     448:	80 2f       	mov	r24, r16
     44a:	87 70       	andi	r24, 0x07	; 7
     44c:	81 50       	subi	r24, 0x01	; 1
     44e:	84 df       	rcall	.-248    	; 0x358 <change_comm_state(unsigned char)>
     450:	80 2f       	mov	r24, r16
     452:	87 70       	andi	r24, 0x07	; 7
     454:	81 cf       	rjmp	.-254    	; 0x358 <change_comm_state(unsigned char)>

00000456 <pct_to_val(unsigned char)>:
     456:	90 e0       	ldi	r25, 0x00	; 0
     458:	a0 e0       	ldi	r26, 0x00	; 0
     45a:	b0 e0       	ldi	r27, 0x00	; 0
     45c:	20 91 88 00 	lds	r18, 0x0088
     460:	30 91 89 00 	lds	r19, 0x0089
     464:	44 27       	eor	r20, r20
     466:	37 fd       	sbrc	r19, 7
     468:	40 95       	com	r20
     46a:	54 2f       	mov	r21, r20
     46c:	bc 01       	movw	r22, r24
     46e:	cd 01       	movw	r24, r26
     470:	d5 d5       	rcall	.+2986   	; 0x101c <__mulsi3>
     472:	24 e6       	ldi	r18, 0x64	; 100
     474:	30 e0       	ldi	r19, 0x00	; 0
     476:	40 e0       	ldi	r20, 0x00	; 0
     478:	50 e0       	ldi	r21, 0x00	; 0
     47a:	16 d6       	rcall	.+3116   	; 0x10a8 <__udivmodsi4>
     47c:	da 01       	movw	r26, r20
     47e:	c9 01       	movw	r24, r18
     480:	08 95       	ret

00000482 <sdm()>:
     482:	92 01       	movw	r18, r4
     484:	40 2f       	mov	r20, r16
     486:	40 71       	andi	r20, 0x10	; 16
     488:	04 ff       	sbrs	r16, 4
     48a:	06 c0       	rjmp	.+12     	; 0x498 <sdm()+0x16>
     48c:	80 91 88 00 	lds	r24, 0x0088
     490:	90 91 89 00 	lds	r25, 0x0089
     494:	28 1b       	sub	r18, r24
     496:	39 0b       	sbc	r19, r25
     498:	80 91 84 00 	lds	r24, 0x0084
     49c:	90 91 85 00 	lds	r25, 0x0085
     4a0:	82 1b       	sub	r24, r18
     4a2:	93 0b       	sbc	r25, r19
     4a4:	90 93 85 00 	sts	0x0085, r25
     4a8:	80 93 84 00 	sts	0x0084, r24
     4ac:	97 fd       	sbrc	r25, 7
     4ae:	08 c0       	rjmp	.+16     	; 0x4c0 <sdm()+0x3e>
     4b0:	44 23       	and	r20, r20
     4b2:	09 f4       	brne	.+2      	; 0x4b6 <sdm()+0x34>
     4b4:	08 95       	ret
     4b6:	80 2f       	mov	r24, r16
     4b8:	8f 7e       	andi	r24, 0xEF	; 239
     4ba:	08 2f       	mov	r16, r24
     4bc:	87 70       	andi	r24, 0x07	; 7
     4be:	46 cf       	rjmp	.-372    	; 0x34c <set_pwm_off(unsigned char)>
     4c0:	44 23       	and	r20, r20
     4c2:	c1 f7       	brne	.-16     	; 0x4b4 <sdm()+0x32>
     4c4:	80 2f       	mov	r24, r16
     4c6:	80 61       	ori	r24, 0x10	; 16
     4c8:	08 2f       	mov	r16, r24
     4ca:	87 70       	andi	r24, 0x07	; 7
     4cc:	20 cf       	rjmp	.-448    	; 0x30e <set_pwm_on(unsigned char)>

000004ce <zc_start_detected()>:
     4ce:	80 2f       	mov	r24, r16
     4d0:	87 70       	andi	r24, 0x07	; 7
     4d2:	80 ff       	sbrs	r24, 0
     4d4:	0d c0       	rjmp	.+26     	; 0x4f0 <zc_start_detected()+0x22>
     4d6:	05 fd       	sbrc	r16, 5
     4d8:	0d c0       	rjmp	.+26     	; 0x4f4 <zc_start_detected()+0x26>
     4da:	23 94       	inc	r2
     4dc:	82 e1       	ldi	r24, 0x12	; 18
     4de:	82 15       	cp	r24, r2
     4e0:	10 f4       	brcc	.+4      	; 0x4e6 <zc_start_detected()+0x18>
     4e2:	62 e1       	ldi	r22, 0x12	; 18
     4e4:	26 2e       	mov	r2, r22
     4e6:	80 e0       	ldi	r24, 0x00	; 0
     4e8:	22 20       	and	r2, r2
     4ea:	09 f4       	brne	.+2      	; 0x4ee <zc_start_detected()+0x20>
     4ec:	81 e0       	ldi	r24, 0x01	; 1
     4ee:	08 95       	ret
     4f0:	05 fd       	sbrc	r16, 5
     4f2:	f3 cf       	rjmp	.-26     	; 0x4da <zc_start_detected()+0xc>
     4f4:	2a 94       	dec	r2
     4f6:	f2 cf       	rjmp	.-28     	; 0x4dc <zc_start_detected()+0xe>

000004f8 <zc_run_detected_lh()>:
     4f8:	e2 2d       	mov	r30, r2
     4fa:	05 ff       	sbrs	r16, 5
     4fc:	e1 60       	ori	r30, 0x01	; 1
     4fe:	f0 e0       	ldi	r31, 0x00	; 0
     500:	ec 53       	subi	r30, 0x3C	; 60
     502:	ff 4f       	sbci	r31, 0xFF	; 255
     504:	e4 91       	lpm	r30, Z+
     506:	2e 2e       	mov	r2, r30
     508:	8e 2f       	mov	r24, r30
     50a:	81 70       	andi	r24, 0x01	; 1
     50c:	08 95       	ret

0000050e <zc_run_detected_hl()>:
     50e:	e2 2d       	mov	r30, r2
     510:	05 fd       	sbrc	r16, 5
     512:	e1 60       	ori	r30, 0x01	; 1
     514:	f0 e0       	ldi	r31, 0x00	; 0
     516:	ec 53       	subi	r30, 0x3C	; 60
     518:	ff 4f       	sbci	r31, 0xFF	; 255
     51a:	e4 91       	lpm	r30, Z+
     51c:	2e 2e       	mov	r2, r30
     51e:	8e 2f       	mov	r24, r30
     520:	81 70       	andi	r24, 0x01	; 1
     522:	08 95       	ret

00000524 <run_power_control()>:
     524:	7d de       	rcall	.-774    	; 0x220 <filter_ppm_data()>
     526:	40 91 79 00 	lds	r20, 0x0079
     52a:	50 91 7a 00 	lds	r21, 0x007A
     52e:	80 91 86 00 	lds	r24, 0x0086
     532:	90 91 87 00 	lds	r25, 0x0087
     536:	48 1b       	sub	r20, r24
     538:	59 0b       	sbc	r21, r25
     53a:	80 91 8a 00 	lds	r24, 0x008A
     53e:	90 91 8b 00 	lds	r25, 0x008B
     542:	48 17       	cp	r20, r24
     544:	59 07       	cpc	r21, r25
     546:	14 f4       	brge	.+4      	; 0x54c <run_power_control()+0x28>
     548:	40 e0       	ldi	r20, 0x00	; 0
     54a:	50 e0       	ldi	r21, 0x00	; 0
     54c:	20 91 88 00 	lds	r18, 0x0088
     550:	30 91 89 00 	lds	r19, 0x0089
     554:	80 91 bc 00 	lds	r24, 0x00BC
     558:	90 91 bd 00 	lds	r25, 0x00BD
     55c:	82 17       	cp	r24, r18
     55e:	93 07       	cpc	r25, r19
     560:	2c f4       	brge	.+10     	; 0x56c <run_power_control()+0x48>
     562:	05 96       	adiw	r24, 0x05	; 5
     564:	90 93 bd 00 	sts	0x00BD, r25
     568:	80 93 bc 00 	sts	0x00BC, r24
     56c:	28 17       	cp	r18, r24
     56e:	39 07       	cpc	r19, r25
     570:	0c f4       	brge	.+2      	; 0x574 <run_power_control()+0x50>
     572:	c9 01       	movw	r24, r18
     574:	48 17       	cp	r20, r24
     576:	59 07       	cpc	r21, r25
     578:	0c f4       	brge	.+2      	; 0x57c <run_power_control()+0x58>
     57a:	ca 01       	movw	r24, r20
     57c:	2c 01       	movw	r4, r24
     57e:	08 95       	ret

00000580 <run_timing_control(unsigned int)>:
     580:	90 93 ba 00 	sts	0x00BA, r25
     584:	80 93 b9 00 	sts	0x00B9, r24
     588:	90 93 b2 00 	sts	0x00B2, r25
     58c:	80 93 b1 00 	sts	0x00B1, r24
     590:	80 91 a4 00 	lds	r24, 0x00A4
     594:	90 91 a5 00 	lds	r25, 0x00A5
     598:	90 93 ae 00 	sts	0x00AE, r25
     59c:	80 93 ad 00 	sts	0x00AD, r24
     5a0:	9c 01       	movw	r18, r24
     5a2:	36 95       	lsr	r19
     5a4:	27 95       	ror	r18
     5a6:	36 95       	lsr	r19
     5a8:	27 95       	ror	r18
     5aa:	36 95       	lsr	r19
     5ac:	27 95       	ror	r18
     5ae:	30 93 b6 00 	sts	0x00B6, r19
     5b2:	20 93 b5 00 	sts	0x00B5, r18
     5b6:	c9 01       	movw	r24, r18
     5b8:	96 95       	lsr	r25
     5ba:	87 95       	ror	r24
     5bc:	90 93 a8 00 	sts	0x00A8, r25
     5c0:	80 93 a7 00 	sts	0x00A7, r24
     5c4:	ac 01       	movw	r20, r24
     5c6:	56 95       	lsr	r21
     5c8:	47 95       	ror	r20
     5ca:	56 95       	lsr	r21
     5cc:	47 95       	ror	r20
     5ce:	80 91 bb 00 	lds	r24, 0x00BB
     5d2:	82 30       	cpi	r24, 0x02	; 2
     5d4:	59 f0       	breq	.+22     	; 0x5ec <run_timing_control(unsigned int)+0x6c>
     5d6:	83 30       	cpi	r24, 0x03	; 3
     5d8:	19 f0       	breq	.+6      	; 0x5e0 <run_timing_control(unsigned int)+0x60>
     5da:	81 30       	cpi	r24, 0x01	; 1
     5dc:	89 f0       	breq	.+34     	; 0x600 <run_timing_control(unsigned int)+0x80>
     5de:	08 95       	ret
     5e0:	24 1b       	sub	r18, r20
     5e2:	35 0b       	sbc	r19, r21
     5e4:	30 93 b6 00 	sts	0x00B6, r19
     5e8:	20 93 b5 00 	sts	0x00B5, r18
     5ec:	80 91 b5 00 	lds	r24, 0x00B5
     5f0:	90 91 b6 00 	lds	r25, 0x00B6
     5f4:	84 1b       	sub	r24, r20
     5f6:	95 0b       	sbc	r25, r21
     5f8:	90 93 b6 00 	sts	0x00B6, r25
     5fc:	80 93 b5 00 	sts	0x00B5, r24
     600:	80 91 b5 00 	lds	r24, 0x00B5
     604:	90 91 b6 00 	lds	r25, 0x00B6
     608:	84 1b       	sub	r24, r20
     60a:	95 0b       	sbc	r25, r21
     60c:	90 93 b6 00 	sts	0x00B6, r25
     610:	80 93 b5 00 	sts	0x00B5, r24
     614:	08 95       	ret

00000616 <run_init()>:
     616:	8f ef       	ldi	r24, 0xFF	; 255
     618:	80 93 a6 00 	sts	0x00A6, r24
     61c:	0f 7b       	andi	r16, 0xBF	; 191
     61e:	50 92 bd 00 	sts	0x00BD, r5
     622:	40 92 bc 00 	sts	0x00BC, r4
     626:	80 91 b3 00 	lds	r24, 0x00B3
     62a:	90 91 b4 00 	lds	r25, 0x00B4
     62e:	a8 cf       	rjmp	.-176    	; 0x580 <run_timing_control(unsigned int)>

00000630 <setup_to_rt()>:
     630:	90 2f       	mov	r25, r16
     632:	9f 77       	andi	r25, 0x7F	; 127
     634:	09 2f       	mov	r16, r25
     636:	80 91 75 00 	lds	r24, 0x0075
     63a:	81 11       	cpse	r24, r1
     63c:	00 68       	ori	r16, 0x80	; 128
     63e:	80 91 76 00 	lds	r24, 0x0076
     642:	80 93 bb 00 	sts	0x00BB, r24
     646:	80 91 6a 00 	lds	r24, 0x006A
     64a:	90 91 6b 00 	lds	r25, 0x006B
     64e:	88 0f       	add	r24, r24
     650:	99 1f       	adc	r25, r25
     652:	90 93 7d 00 	sts	0x007D, r25
     656:	80 93 7c 00 	sts	0x007C, r24
     65a:	80 91 6c 00 	lds	r24, 0x006C
     65e:	90 91 6d 00 	lds	r25, 0x006D
     662:	88 0f       	add	r24, r24
     664:	99 1f       	adc	r25, r25
     666:	90 93 7f 00 	sts	0x007F, r25
     66a:	80 93 7e 00 	sts	0x007E, r24
     66e:	e0 91 6e 00 	lds	r30, 0x006E
     672:	f0 91 6f 00 	lds	r31, 0x006F
     676:	ee 0f       	add	r30, r30
     678:	ff 1f       	adc	r31, r31
     67a:	f0 93 81 00 	sts	0x0081, r31
     67e:	e0 93 80 00 	sts	0x0080, r30
     682:	80 91 72 00 	lds	r24, 0x0072
     686:	90 91 73 00 	lds	r25, 0x0073
     68a:	88 0f       	add	r24, r24
     68c:	99 1f       	adc	r25, r25
     68e:	90 93 83 00 	sts	0x0083, r25
     692:	80 93 82 00 	sts	0x0082, r24
     696:	20 91 70 00 	lds	r18, 0x0070
     69a:	30 91 71 00 	lds	r19, 0x0071
     69e:	22 0f       	add	r18, r18
     6a0:	33 1f       	adc	r19, r19
     6a2:	2e 1b       	sub	r18, r30
     6a4:	3f 0b       	sbc	r19, r31
     6a6:	c9 01       	movw	r24, r18
     6a8:	88 0f       	add	r24, r24
     6aa:	99 1f       	adc	r25, r25
     6ac:	88 0f       	add	r24, r24
     6ae:	99 1f       	adc	r25, r25
     6b0:	88 0f       	add	r24, r24
     6b2:	99 1f       	adc	r25, r25
     6b4:	64 e6       	ldi	r22, 0x64	; 100
     6b6:	70 e0       	ldi	r23, 0x00	; 0
     6b8:	d0 d4       	rcall	.+2464   	; 0x105a <__udivmodhi4>
     6ba:	26 0f       	add	r18, r22
     6bc:	37 1f       	adc	r19, r23
     6be:	30 93 89 00 	sts	0x0089, r19
     6c2:	20 93 88 00 	sts	0x0088, r18
     6c6:	e6 1b       	sub	r30, r22
     6c8:	f7 0b       	sbc	r31, r23
     6ca:	f0 93 87 00 	sts	0x0087, r31
     6ce:	e0 93 86 00 	sts	0x0086, r30
     6d2:	70 93 8b 00 	sts	0x008B, r23
     6d6:	60 93 8a 00 	sts	0x008A, r22
     6da:	88 e0       	ldi	r24, 0x08	; 8
     6dc:	bc de       	rcall	.-648    	; 0x456 <pct_to_val(unsigned char)>
     6de:	90 93 8d 00 	sts	0x008D, r25
     6e2:	80 93 8c 00 	sts	0x008C, r24
     6e6:	89 e1       	ldi	r24, 0x19	; 25
     6e8:	b6 de       	rcall	.-660    	; 0x456 <pct_to_val(unsigned char)>
     6ea:	90 93 8f 00 	sts	0x008F, r25
     6ee:	80 93 8e 00 	sts	0x008E, r24
     6f2:	07 7f       	andi	r16, 0xF7	; 247
     6f4:	08 95       	ret

000006f6 <beep(unsigned char, unsigned char)>:
     6f6:	cf 92       	push	r12
     6f8:	df 92       	push	r13
     6fa:	ef 92       	push	r14
     6fc:	ff 92       	push	r15
     6fe:	cf 93       	push	r28
     700:	df 93       	push	r29
     702:	26 2f       	mov	r18, r22
     704:	e8 2f       	mov	r30, r24
     706:	f0 e0       	ldi	r31, 0x00	; 0
     708:	80 e1       	ldi	r24, 0x10	; 16
     70a:	97 e2       	ldi	r25, 0x27	; 39
     70c:	bf 01       	movw	r22, r30
     70e:	b9 d4       	rcall	.+2418   	; 0x1082 <__divmodhi4>
     710:	6b 01       	movw	r12, r22
     712:	30 e0       	ldi	r19, 0x00	; 0
     714:	2e 9f       	mul	r18, r30
     716:	70 01       	movw	r14, r0
     718:	2f 9f       	mul	r18, r31
     71a:	f0 0c       	add	r15, r0
     71c:	3e 9f       	mul	r19, r30
     71e:	f0 0c       	add	r15, r0
     720:	11 24       	eor	r1, r1
     722:	e1 14       	cp	r14, r1
     724:	f1 04       	cpc	r15, r1
     726:	89 f0       	breq	.+34     	; 0x74a <beep(unsigned char, unsigned char)+0x54>
     728:	c0 e0       	ldi	r28, 0x00	; 0
     72a:	d0 e0       	ldi	r29, 0x00	; 0
     72c:	80 2f       	mov	r24, r16
     72e:	87 70       	andi	r24, 0x07	; 7
     730:	ee dd       	rcall	.-1060   	; 0x30e <set_pwm_on(unsigned char)>
     732:	86 e0       	ldi	r24, 0x06	; 6
     734:	90 e0       	ldi	r25, 0x00	; 0
     736:	2a dd       	rcall	.-1452   	; 0x18c <__delay_us(unsigned int)>
     738:	80 2f       	mov	r24, r16
     73a:	87 70       	andi	r24, 0x07	; 7
     73c:	07 de       	rcall	.-1010   	; 0x34c <set_pwm_off(unsigned char)>
     73e:	c6 01       	movw	r24, r12
     740:	25 dd       	rcall	.-1462   	; 0x18c <__delay_us(unsigned int)>
     742:	21 96       	adiw	r28, 0x01	; 1
     744:	ce 15       	cp	r28, r14
     746:	df 05       	cpc	r29, r15
     748:	88 f3       	brcs	.-30     	; 0x72c <beep(unsigned char, unsigned char)+0x36>
     74a:	df 91       	pop	r29
     74c:	cf 91       	pop	r28
     74e:	ff 90       	pop	r15
     750:	ef 90       	pop	r14
     752:	df 90       	pop	r13
     754:	cf 90       	pop	r12
     756:	08 95       	ret

00000758 <startup_sound()>:
     758:	1f 93       	push	r17
     75a:	08 7f       	andi	r16, 0xF8	; 248
     75c:	75 de       	rcall	.-790    	; 0x448 <set_comm_state()>
     75e:	10 e0       	ldi	r17, 0x00	; 0
     760:	91 2f       	mov	r25, r17
     762:	97 70       	andi	r25, 0x07	; 7
     764:	80 2f       	mov	r24, r16
     766:	88 7f       	andi	r24, 0xF8	; 248
     768:	08 2f       	mov	r16, r24
     76a:	09 2b       	or	r16, r25
     76c:	81 2f       	mov	r24, r17
     76e:	f4 dd       	rcall	.-1048   	; 0x358 <change_comm_state(unsigned char)>
     770:	81 2f       	mov	r24, r17
     772:	8a 5f       	subi	r24, 0xFA	; 250
     774:	6a e0       	ldi	r22, 0x0A	; 10
     776:	bf df       	rcall	.-130    	; 0x6f6 <beep(unsigned char, unsigned char)>
     778:	85 e0       	ldi	r24, 0x05	; 5
     77a:	90 e0       	ldi	r25, 0x00	; 0
     77c:	1c dd       	rcall	.-1480   	; 0x1b6 <__delay_ms(unsigned int)>
     77e:	1f 5f       	subi	r17, 0xFF	; 255
     780:	15 30       	cpi	r17, 0x05	; 5
     782:	71 f7       	brne	.-36     	; 0x760 <startup_sound()+0x8>
     784:	1f 91       	pop	r17
     786:	08 95       	ret

00000788 <wait_for(unsigned int, unsigned int, unsigned char)>:
     788:	cf 92       	push	r12
     78a:	df 92       	push	r13
     78c:	ff 92       	push	r15
     78e:	1f 93       	push	r17
     790:	cf 93       	push	r28
     792:	df 93       	push	r29
     794:	ec 01       	movw	r28, r24
     796:	6b 01       	movw	r12, r22
     798:	f4 2e       	mov	r15, r20
     79a:	14 2f       	mov	r17, r20
     79c:	95 dd       	rcall	.-1238   	; 0x2c8 <rx_get_frame()>
     79e:	21 2f       	mov	r18, r17
     7a0:	1f 2d       	mov	r17, r15
     7a2:	8c 17       	cp	r24, r28
     7a4:	9d 07       	cpc	r25, r29
     7a6:	d0 f3       	brcs	.-12     	; 0x79c <wait_for(unsigned int, unsigned int, unsigned char)+0x14>
     7a8:	c8 16       	cp	r12, r24
     7aa:	d9 06       	cpc	r13, r25
     7ac:	b8 f3       	brcs	.-18     	; 0x79c <wait_for(unsigned int, unsigned int, unsigned char)+0x14>
     7ae:	12 2f       	mov	r17, r18
     7b0:	11 50       	subi	r17, 0x01	; 1
     7b2:	a1 f7       	brne	.-24     	; 0x79c <wait_for(unsigned int, unsigned int, unsigned char)+0x14>
     7b4:	df 91       	pop	r29
     7b6:	cf 91       	pop	r28
     7b8:	1f 91       	pop	r17
     7ba:	ff 90       	pop	r15
     7bc:	df 90       	pop	r13
     7be:	cf 90       	pop	r12
     7c0:	08 95       	ret

000007c2 <get_stable_ppm_value()>:
     7c2:	ef 92       	push	r14
     7c4:	ff 92       	push	r15
     7c6:	1f 93       	push	r17
     7c8:	cf 93       	push	r28
     7ca:	df 93       	push	r29
     7cc:	7d dd       	rcall	.-1286   	; 0x2c8 <rx_get_frame()>
     7ce:	7c 01       	movw	r14, r24
     7d0:	ec 01       	movw	r28, r24
     7d2:	10 e0       	ldi	r17, 0x00	; 0
     7d4:	03 c0       	rjmp	.+6      	; 0x7dc <get_stable_ppm_value()+0x1a>
     7d6:	1f 5f       	subi	r17, 0xFF	; 255
     7d8:	12 33       	cpi	r17, 0x32	; 50
     7da:	a9 f0       	breq	.+42     	; 0x806 <get_stable_ppm_value()+0x44>
     7dc:	75 dd       	rcall	.-1302   	; 0x2c8 <rx_get_frame()>
     7de:	c8 17       	cp	r28, r24
     7e0:	d9 07       	cpc	r29, r25
     7e2:	08 f4       	brcc	.+2      	; 0x7e6 <get_stable_ppm_value()+0x24>
     7e4:	ec 01       	movw	r28, r24
     7e6:	8e 15       	cp	r24, r14
     7e8:	9f 05       	cpc	r25, r15
     7ea:	08 f4       	brcc	.+2      	; 0x7ee <get_stable_ppm_value()+0x2c>
     7ec:	7c 01       	movw	r14, r24
     7ee:	ce 01       	movw	r24, r28
     7f0:	8e 19       	sub	r24, r14
     7f2:	9f 09       	sbc	r25, r15
     7f4:	09 97       	sbiw	r24, 0x09	; 9
     7f6:	78 f3       	brcs	.-34     	; 0x7d6 <get_stable_ppm_value()+0x14>
     7f8:	80 e0       	ldi	r24, 0x00	; 0
     7fa:	90 e0       	ldi	r25, 0x00	; 0
     7fc:	cd b7       	in	r28, 0x3d	; 61
     7fe:	de b7       	in	r29, 0x3e	; 62
     800:	e5 e0       	ldi	r30, 0x05	; 5
     802:	9d c4       	rjmp	.+2362   	; 0x113e <__epilogue_restores__+0x1a>
     804:	09 c0       	rjmp	.+18     	; 0x818 <wait_for_arm()>
     806:	ce 01       	movw	r24, r28
     808:	8e 0d       	add	r24, r14
     80a:	9f 1d       	adc	r25, r15
     80c:	96 95       	lsr	r25
     80e:	87 95       	ror	r24
     810:	cd b7       	in	r28, 0x3d	; 61
     812:	de b7       	in	r29, 0x3e	; 62
     814:	e5 e0       	ldi	r30, 0x05	; 5
     816:	93 c4       	rjmp	.+2342   	; 0x113e <__epilogue_restores__+0x1a>

00000818 <wait_for_arm()>:
     818:	60 91 80 00 	lds	r22, 0x0080
     81c:	70 91 81 00 	lds	r23, 0x0081
     820:	80 91 7c 00 	lds	r24, 0x007C
     824:	90 91 7d 00 	lds	r25, 0x007D
     828:	42 e3       	ldi	r20, 0x32	; 50
     82a:	ae cf       	rjmp	.-164    	; 0x788 <wait_for(unsigned int, unsigned int, unsigned char)>

0000082c <wait_for_power_on()>:
     82c:	80 91 74 00 	lds	r24, 0x0074
     830:	90 e0       	ldi	r25, 0x00	; 0
     832:	88 0f       	add	r24, r24
     834:	99 1f       	adc	r25, r25
     836:	20 91 80 00 	lds	r18, 0x0080
     83a:	30 91 81 00 	lds	r19, 0x0081
     83e:	60 91 7e 00 	lds	r22, 0x007E
     842:	70 91 7f 00 	lds	r23, 0x007F
     846:	82 0f       	add	r24, r18
     848:	93 1f       	adc	r25, r19
     84a:	4f e0       	ldi	r20, 0x0F	; 15
     84c:	9d cf       	rjmp	.-198    	; 0x788 <wait_for(unsigned int, unsigned int, unsigned char)>

0000084e <loop>:
     84e:	a0 e0       	ldi	r26, 0x00	; 0
     850:	b0 e0       	ldi	r27, 0x00	; 0
     852:	ec e2       	ldi	r30, 0x2C	; 44
     854:	f4 e0       	ldi	r31, 0x04	; 4
     856:	4f c4       	rjmp	.+2206   	; 0x10f6 <__prologue_saves__+0xa>
     858:	df df       	rcall	.-66     	; 0x818 <wait_for_arm()>
     85a:	f6 dd       	rcall	.-1044   	; 0x448 <set_comm_state()>
     85c:	8c e0       	ldi	r24, 0x0C	; 12
     85e:	62 e3       	ldi	r22, 0x32	; 50
     860:	4a df       	rcall	.-364    	; 0x6f6 <beep(unsigned char, unsigned char)>
     862:	78 e0       	ldi	r23, 0x08	; 8
     864:	67 2e       	mov	r6, r23
     866:	78 ef       	ldi	r23, 0xF8	; 248
     868:	77 2e       	mov	r7, r23
     86a:	71 e0       	ldi	r23, 0x01	; 1
     86c:	87 2e       	mov	r8, r23
     86e:	91 2c       	mov	r9, r1
     870:	60 ea       	ldi	r22, 0xA0	; 160
     872:	c6 2e       	mov	r12, r22
     874:	66 e8       	ldi	r22, 0x86	; 134
     876:	d6 2e       	mov	r13, r22
     878:	61 e0       	ldi	r22, 0x01	; 1
     87a:	e6 2e       	mov	r14, r22
     87c:	f1 2c       	mov	r15, r1
     87e:	aa 24       	eor	r10, r10
     880:	a3 94       	inc	r10
     882:	30 dd       	rcall	.-1440   	; 0x2e4 <free_spin()>
     884:	10 92 85 00 	sts	0x0085, r1
     888:	10 92 84 00 	sts	0x0084, r1
     88c:	44 24       	eor	r4, r4
     88e:	55 24       	eor	r5, r5
     890:	80 2f       	mov	r24, r16
     892:	8f 7e       	andi	r24, 0xEF	; 239
     894:	08 2f       	mov	r16, r24
     896:	87 ff       	sbrs	r24, 7
     898:	03 c0       	rjmp	.+6      	; 0x8a0 <loop+0x52>
     89a:	95 9a       	sbi	0x12, 5	; 18
     89c:	ac 9a       	sbi	0x15, 4	; 21
     89e:	c0 9a       	sbi	0x18, 0	; 24
     8a0:	c5 df       	rcall	.-118    	; 0x82c <wait_for_power_on()>
     8a2:	20 dd       	rcall	.-1472   	; 0x2e4 <free_spin()>
     8a4:	40 90 8c 00 	lds	r4, 0x008C
     8a8:	50 90 8d 00 	lds	r5, 0x008D
     8ac:	60 92 9e 00 	sts	0x009E, r6
     8b0:	70 92 9f 00 	sts	0x009F, r7
     8b4:	80 92 a0 00 	sts	0x00A0, r8
     8b8:	90 92 a1 00 	sts	0x00A1, r9
     8bc:	cf ef       	ldi	r28, 0xFF	; 255
     8be:	df e3       	ldi	r29, 0x3F	; 63
     8c0:	10 e0       	ldi	r17, 0x00	; 0
     8c2:	80 91 9e 00 	lds	r24, 0x009E
     8c6:	90 91 9f 00 	lds	r25, 0x009F
     8ca:	a0 91 a0 00 	lds	r26, 0x00A0
     8ce:	b0 91 a1 00 	lds	r27, 0x00A1
     8d2:	80 93 9a 00 	sts	0x009A, r24
     8d6:	90 93 9b 00 	sts	0x009B, r25
     8da:	a0 93 9c 00 	sts	0x009C, r26
     8de:	b0 93 9d 00 	sts	0x009D, r27
     8e2:	52 e1       	ldi	r21, 0x12	; 18
     8e4:	25 2e       	mov	r2, r21
     8e6:	16 c0       	rjmp	.+44     	; 0x914 <loop+0xc6>
     8e8:	0f 7d       	andi	r16, 0xDF	; 223
     8ea:	cb dd       	rcall	.-1130   	; 0x482 <sdm()>
     8ec:	8f b7       	in	r24, 0x3f	; 63
     8ee:	f8 94       	cli
     8f0:	6c b5       	in	r22, 0x2c	; 44
     8f2:	7d b5       	in	r23, 0x2d	; 45
     8f4:	8f bf       	out	0x3f, r24	; 63
     8f6:	8a e9       	ldi	r24, 0x9A	; 154
     8f8:	90 e0       	ldi	r25, 0x00	; 0
     8fa:	20 dc       	rcall	.-1984   	; 0x13c <timer_expired(timer_big*, unsigned int)>
     8fc:	88 23       	and	r24, r24
     8fe:	09 f0       	breq	.+2      	; 0x902 <loop+0xb4>
     900:	92 c0       	rjmp	.+292    	; 0xa26 <loop+0x1d8>
     902:	e5 dd       	rcall	.-1078   	; 0x4ce <zc_start_detected()>
     904:	88 23       	and	r24, r24
     906:	71 f4       	brne	.+28     	; 0x924 <loop+0xd6>
     908:	45 9b       	sbis	0x08, 5	; 8
     90a:	08 c0       	rjmp	.+16     	; 0x91c <loop+0xce>
     90c:	0f 7d       	andi	r16, 0xDF	; 223
     90e:	df dd       	rcall	.-1090   	; 0x4ce <zc_start_detected()>
     910:	88 23       	and	r24, r24
     912:	41 f4       	brne	.+16     	; 0x924 <loop+0xd6>
     914:	45 99       	sbic	0x08, 5	; 8
     916:	e8 cf       	rjmp	.-48     	; 0x8e8 <loop+0x9a>
     918:	00 62       	ori	r16, 0x20	; 32
     91a:	e7 cf       	rjmp	.-50     	; 0x8ea <loop+0x9c>
     91c:	00 62       	ori	r16, 0x20	; 32
     91e:	d7 dd       	rcall	.-1106   	; 0x4ce <zc_start_detected()>
     920:	88 23       	and	r24, r24
     922:	c1 f3       	breq	.-16     	; 0x914 <loop+0xc6>
     924:	8f b7       	in	r24, 0x3f	; 63
     926:	f8 94       	cli
     928:	2c b5       	in	r18, 0x2c	; 44
     92a:	3d b5       	in	r19, 0x2d	; 45
     92c:	8f bf       	out	0x3f, r24	; 63
     92e:	80 91 b3 00 	lds	r24, 0x00B3
     932:	90 91 b4 00 	lds	r25, 0x00B4
     936:	a9 01       	movw	r20, r18
     938:	48 1b       	sub	r20, r24
     93a:	59 0b       	sbc	r21, r25
     93c:	30 93 b4 00 	sts	0x00B4, r19
     940:	20 93 b3 00 	sts	0x00B3, r18
     944:	80 91 be 00 	lds	r24, 0x00BE
     948:	90 91 bf 00 	lds	r25, 0x00BF
     94c:	84 0f       	add	r24, r20
     94e:	95 1f       	adc	r25, r21
     950:	90 93 a5 00 	sts	0x00A5, r25
     954:	80 93 a4 00 	sts	0x00A4, r24
     958:	50 93 bf 00 	sts	0x00BF, r21
     95c:	40 93 be 00 	sts	0x00BE, r20
     960:	8c 1b       	sub	r24, r28
     962:	9d 0b       	sbc	r25, r29
     964:	95 95       	asr	r25
     966:	87 95       	ror	r24
     968:	95 95       	asr	r25
     96a:	87 95       	ror	r24
     96c:	c8 0f       	add	r28, r24
     96e:	d9 1f       	adc	r29, r25
     970:	1f 5f       	subi	r17, 0xFF	; 255
     972:	18 37       	cpi	r17, 0x78	; 120
     974:	30 f0       	brcs	.+12     	; 0x982 <loop+0x134>
     976:	2b e1       	ldi	r18, 0x1B	; 27
     978:	c5 3e       	cpi	r28, 0xE5	; 229
     97a:	d2 07       	cpc	r29, r18
     97c:	0c f4       	brge	.+2      	; 0x980 <loop+0x132>
     97e:	70 c0       	rjmp	.+224    	; 0xa60 <loop+0x212>
     980:	18 e7       	ldi	r17, 0x78	; 120
     982:	90 2f       	mov	r25, r16
     984:	97 70       	andi	r25, 0x07	; 7
     986:	89 2f       	mov	r24, r25
     988:	8f 5f       	subi	r24, 0xFF	; 255
     98a:	86 30       	cpi	r24, 0x06	; 6
     98c:	08 f0       	brcs	.+2      	; 0x990 <loop+0x142>
     98e:	86 50       	subi	r24, 0x06	; 6
     990:	87 70       	andi	r24, 0x07	; 7
     992:	90 2f       	mov	r25, r16
     994:	98 7f       	andi	r25, 0xF8	; 248
     996:	09 2f       	mov	r16, r25
     998:	08 2b       	or	r16, r24
     99a:	d8 dc       	rcall	.-1616   	; 0x34c <set_pwm_off(unsigned char)>
     99c:	80 2f       	mov	r24, r16
     99e:	8f 7e       	andi	r24, 0xEF	; 239
     9a0:	08 2f       	mov	r16, r24
     9a2:	87 70       	andi	r24, 0x07	; 7
     9a4:	d9 dc       	rcall	.-1614   	; 0x358 <change_comm_state(unsigned char)>
     9a6:	80 2f       	mov	r24, r16
     9a8:	87 70       	andi	r24, 0x07	; 7
     9aa:	41 f1       	breq	.+80     	; 0x9fc <loop+0x1ae>
     9ac:	80 91 9e 00 	lds	r24, 0x009E
     9b0:	90 91 9f 00 	lds	r25, 0x009F
     9b4:	a0 91 a0 00 	lds	r26, 0x00A0
     9b8:	b0 91 a1 00 	lds	r27, 0x00A1
     9bc:	88 97       	sbiw	r24, 0x28	; 40
     9be:	a1 09       	sbc	r26, r1
     9c0:	b1 09       	sbc	r27, r1
     9c2:	80 93 9e 00 	sts	0x009E, r24
     9c6:	90 93 9f 00 	sts	0x009F, r25
     9ca:	a0 93 a0 00 	sts	0x00A0, r26
     9ce:	b0 93 a1 00 	sts	0x00A1, r27
     9d2:	80 5a       	subi	r24, 0xA0	; 160
     9d4:	96 48       	sbci	r25, 0x86	; 134
     9d6:	a1 40       	sbci	r26, 0x01	; 1
     9d8:	b0 40       	sbci	r27, 0x00	; 0
     9da:	40 f4       	brcc	.+16     	; 0x9ec <loop+0x19e>
     9dc:	c0 92 9e 00 	sts	0x009E, r12
     9e0:	d0 92 9f 00 	sts	0x009F, r13
     9e4:	e0 92 a0 00 	sts	0x00A0, r14
     9e8:	f0 92 a1 00 	sts	0x00A1, r15
     9ec:	41 14       	cp	r4, r1
     9ee:	51 04       	cpc	r5, r1
     9f0:	09 f4       	brne	.+2      	; 0x9f4 <loop+0x1a6>
     9f2:	47 cf       	rjmp	.-370    	; 0x882 <loop+0x34>
     9f4:	8c e2       	ldi	r24, 0x2C	; 44
     9f6:	91 e0       	ldi	r25, 0x01	; 1
     9f8:	c9 db       	rcall	.-2158   	; 0x18c <__delay_us(unsigned int)>
     9fa:	63 cf       	rjmp	.-314    	; 0x8c2 <loop+0x74>
     9fc:	11 dc       	rcall	.-2014   	; 0x220 <filter_ppm_data()>
     9fe:	40 91 79 00 	lds	r20, 0x0079
     a02:	50 91 7a 00 	lds	r21, 0x007A
     a06:	80 91 86 00 	lds	r24, 0x0086
     a0a:	90 91 87 00 	lds	r25, 0x0087
     a0e:	48 1b       	sub	r20, r24
     a10:	59 0b       	sbc	r21, r25
     a12:	80 91 8a 00 	lds	r24, 0x008A
     a16:	90 91 8b 00 	lds	r25, 0x008B
     a1a:	48 17       	cp	r20, r24
     a1c:	59 07       	cpc	r21, r25
     a1e:	2c f4       	brge	.+10     	; 0xa2a <loop+0x1dc>
     a20:	44 24       	eor	r4, r4
     a22:	55 24       	eor	r5, r5
     a24:	c3 cf       	rjmp	.-122    	; 0x9ac <loop+0x15e>
     a26:	10 e0       	ldi	r17, 0x00	; 0
     a28:	ac cf       	rjmp	.-168    	; 0x982 <loop+0x134>
     a2a:	20 91 8c 00 	lds	r18, 0x008C
     a2e:	30 91 8d 00 	lds	r19, 0x008D
     a32:	42 17       	cp	r20, r18
     a34:	53 07       	cpc	r21, r19
     a36:	4c f0       	brlt	.+18     	; 0xa4a <loop+0x1fc>
     a38:	80 91 8e 00 	lds	r24, 0x008E
     a3c:	90 91 8f 00 	lds	r25, 0x008F
     a40:	9a 01       	movw	r18, r20
     a42:	84 17       	cp	r24, r20
     a44:	95 07       	cpc	r25, r21
     a46:	0c f4       	brge	.+2      	; 0xa4a <loop+0x1fc>
     a48:	9c 01       	movw	r18, r24
     a4a:	c2 01       	movw	r24, r4
     a4c:	24 19       	sub	r18, r4
     a4e:	35 09       	sbc	r19, r5
     a50:	35 95       	asr	r19
     a52:	27 95       	ror	r18
     a54:	35 95       	asr	r19
     a56:	27 95       	ror	r18
     a58:	29 01       	movw	r4, r18
     a5a:	48 0e       	add	r4, r24
     a5c:	59 1e       	adc	r5, r25
     a5e:	a6 cf       	rjmp	.-180    	; 0x9ac <loop+0x15e>
     a60:	90 2f       	mov	r25, r16
     a62:	97 70       	andi	r25, 0x07	; 7
     a64:	89 2f       	mov	r24, r25
     a66:	8f 5f       	subi	r24, 0xFF	; 255
     a68:	86 30       	cpi	r24, 0x06	; 6
     a6a:	08 f0       	brcs	.+2      	; 0xa6e <loop+0x220>
     a6c:	86 50       	subi	r24, 0x06	; 6
     a6e:	87 70       	andi	r24, 0x07	; 7
     a70:	90 2f       	mov	r25, r16
     a72:	98 7f       	andi	r25, 0xF8	; 248
     a74:	09 2f       	mov	r16, r25
     a76:	08 2b       	or	r16, r24
     a78:	6f dc       	rcall	.-1826   	; 0x358 <change_comm_state(unsigned char)>
     a7a:	cd dd       	rcall	.-1126   	; 0x616 <run_init()>
     a7c:	bb 24       	eor	r11, r11
     a7e:	10 e0       	ldi	r17, 0x00	; 0
     a80:	45 9b       	sbis	0x08, 5	; 8
     a82:	63 c0       	rjmp	.+198    	; 0xb4a <loop+0x2fc>
     a84:	0f 7d       	andi	r16, 0xDF	; 223
     a86:	b0 fc       	sbrc	r11, 0
     a88:	63 c0       	rjmp	.+198    	; 0xb50 <loop+0x302>
     a8a:	8f b7       	in	r24, 0x3f	; 63
     a8c:	f8 94       	cli
     a8e:	cc b5       	in	r28, 0x2c	; 44
     a90:	dd b5       	in	r29, 0x2d	; 45
     a92:	8f bf       	out	0x3f, r24	; 63
     a94:	e1 2f       	mov	r30, r17
     a96:	f0 e0       	ldi	r31, 0x00	; 0
     a98:	e9 30       	cpi	r30, 0x09	; 9
     a9a:	f1 05       	cpc	r31, r1
     a9c:	88 f0       	brcs	.+34     	; 0xac0 <loop+0x272>
     a9e:	22 dc       	rcall	.-1980   	; 0x2e4 <free_spin()>
     aa0:	10 92 85 00 	sts	0x0085, r1
     aa4:	10 92 84 00 	sts	0x0084, r1
     aa8:	44 24       	eor	r4, r4
     aaa:	55 24       	eor	r5, r5
     aac:	0f 7e       	andi	r16, 0xEF	; 239
     aae:	80 91 a6 00 	lds	r24, 0x00A6
     ab2:	88 23       	and	r24, r24
     ab4:	09 f4       	brne	.+2      	; 0xab8 <loop+0x26a>
     ab6:	e5 ce       	rjmp	.-566    	; 0x882 <loop+0x34>
     ab8:	cd b7       	in	r28, 0x3d	; 61
     aba:	de b7       	in	r29, 0x3e	; 62
     abc:	ed e0       	ldi	r30, 0x0D	; 13
     abe:	37 c3       	rjmp	.+1646   	; 0x112e <__epilogue_restores__+0xa>
     ac0:	e7 5a       	subi	r30, 0xA7	; 167
     ac2:	ff 4f       	sbci	r31, 0xFF	; 255
     ac4:	09 94       	ijmp
     ac6:	12 e0       	ldi	r17, 0x02	; 2
     ac8:	80 91 ab 00 	lds	r24, 0x00AB
     acc:	90 91 ac 00 	lds	r25, 0x00AC
     ad0:	9e 01       	movw	r18, r28
     ad2:	28 1b       	sub	r18, r24
     ad4:	39 0b       	sbc	r19, r25
     ad6:	d0 93 ac 00 	sts	0x00AC, r29
     ada:	c0 93 ab 00 	sts	0x00AB, r28
     ade:	80 91 a7 00 	lds	r24, 0x00A7
     ae2:	90 91 a8 00 	lds	r25, 0x00A8
     ae6:	28 17       	cp	r18, r24
     ae8:	39 07       	cpc	r19, r25
     aea:	08 f4       	brcc	.+2      	; 0xaee <loop+0x2a0>
     aec:	0f c1       	rjmp	.+542    	; 0xd0c <loop+0x4be>
     aee:	80 91 a9 00 	lds	r24, 0x00A9
     af2:	90 91 aa 00 	lds	r25, 0x00AA
     af6:	90 93 a8 00 	sts	0x00A8, r25
     afa:	80 93 a7 00 	sts	0x00A7, r24
     afe:	22 24       	eor	r2, r2
     b00:	80 2f       	mov	r24, r16
     b02:	87 70       	andi	r24, 0x07	; 7
     b04:	80 ff       	sbrs	r24, 0
     b06:	84 c0       	rjmp	.+264    	; 0xc10 <loop+0x3c2>
     b08:	80 91 b1 00 	lds	r24, 0x00B1
     b0c:	90 91 b2 00 	lds	r25, 0x00B2
     b10:	9e 01       	movw	r18, r28
     b12:	28 1b       	sub	r18, r24
     b14:	39 0b       	sbc	r19, r25
     b16:	d0 93 b2 00 	sts	0x00B2, r29
     b1a:	c0 93 b1 00 	sts	0x00B1, r28
     b1e:	80 91 ad 00 	lds	r24, 0x00AD
     b22:	90 91 ae 00 	lds	r25, 0x00AE
     b26:	28 17       	cp	r18, r24
     b28:	39 07       	cpc	r19, r25
     b2a:	08 f0       	brcs	.+2      	; 0xb2e <loop+0x2e0>
     b2c:	db c0       	rjmp	.+438    	; 0xce4 <loop+0x496>
     b2e:	82 1b       	sub	r24, r18
     b30:	93 0b       	sbc	r25, r19
     b32:	90 93 ae 00 	sts	0x00AE, r25
     b36:	80 93 ad 00 	sts	0x00AD, r24
     b3a:	de dc       	rcall	.-1604   	; 0x4f8 <zc_run_detected_lh()>
     b3c:	88 23       	and	r24, r24
     b3e:	09 f0       	breq	.+2      	; 0xb42 <loop+0x2f4>
     b40:	ec c0       	rjmp	.+472    	; 0xd1a <loop+0x4cc>
     b42:	13 e0       	ldi	r17, 0x03	; 3
     b44:	b3 94       	inc	r11
     b46:	45 99       	sbic	0x08, 5	; 8
     b48:	9d cf       	rjmp	.-198    	; 0xa84 <loop+0x236>
     b4a:	00 62       	ori	r16, 0x20	; 32
     b4c:	b0 fe       	sbrs	r11, 0
     b4e:	9d cf       	rjmp	.-198    	; 0xa8a <loop+0x23c>
     b50:	98 dc       	rcall	.-1744   	; 0x482 <sdm()>
     b52:	9b cf       	rjmp	.-202    	; 0xa8a <loop+0x23c>
     b54:	17 e0       	ldi	r17, 0x07	; 7
     b56:	80 91 b9 00 	lds	r24, 0x00B9
     b5a:	90 91 ba 00 	lds	r25, 0x00BA
     b5e:	9e 01       	movw	r18, r28
     b60:	28 1b       	sub	r18, r24
     b62:	39 0b       	sbc	r19, r25
     b64:	d0 93 ba 00 	sts	0x00BA, r29
     b68:	c0 93 b9 00 	sts	0x00B9, r28
     b6c:	80 91 b5 00 	lds	r24, 0x00B5
     b70:	90 91 b6 00 	lds	r25, 0x00B6
     b74:	28 17       	cp	r18, r24
     b76:	39 07       	cpc	r19, r25
     b78:	08 f4       	brcc	.+2      	; 0xb7c <loop+0x32e>
     b7a:	c1 c0       	rjmp	.+386    	; 0xcfe <loop+0x4b0>
     b7c:	80 91 b7 00 	lds	r24, 0x00B7
     b80:	90 91 b8 00 	lds	r25, 0x00B8
     b84:	90 93 b6 00 	sts	0x00B6, r25
     b88:	80 93 b5 00 	sts	0x00B5, r24
     b8c:	80 91 a4 00 	lds	r24, 0x00A4
     b90:	90 91 a5 00 	lds	r25, 0x00A5
     b94:	81 51       	subi	r24, 0x11	; 17
     b96:	97 42       	sbci	r25, 0x27	; 39
     b98:	08 f0       	brcs	.+2      	; 0xb9c <loop+0x34e>
     b9a:	94 c0       	rjmp	.+296    	; 0xcc4 <loop+0x476>
     b9c:	90 2f       	mov	r25, r16
     b9e:	97 70       	andi	r25, 0x07	; 7
     ba0:	89 2f       	mov	r24, r25
     ba2:	8f 5f       	subi	r24, 0xFF	; 255
     ba4:	86 30       	cpi	r24, 0x06	; 6
     ba6:	08 f0       	brcs	.+2      	; 0xbaa <loop+0x35c>
     ba8:	86 50       	subi	r24, 0x06	; 6
     baa:	87 70       	andi	r24, 0x07	; 7
     bac:	90 2f       	mov	r25, r16
     bae:	98 7f       	andi	r25, 0xF8	; 248
     bb0:	09 2f       	mov	r16, r25
     bb2:	08 2b       	or	r16, r24
     bb4:	d1 db       	rcall	.-2142   	; 0x358 <change_comm_state(unsigned char)>
     bb6:	80 91 98 00 	lds	r24, 0x0098
     bba:	90 91 99 00 	lds	r25, 0x0099
     bbe:	9e 01       	movw	r18, r28
     bc0:	28 1b       	sub	r18, r24
     bc2:	39 0b       	sbc	r19, r25
     bc4:	d0 93 99 00 	sts	0x0099, r29
     bc8:	c0 93 98 00 	sts	0x0098, r28
     bcc:	80 91 94 00 	lds	r24, 0x0094
     bd0:	90 91 95 00 	lds	r25, 0x0095
     bd4:	28 17       	cp	r18, r24
     bd6:	39 07       	cpc	r19, r25
     bd8:	08 f4       	brcc	.+2      	; 0xbdc <loop+0x38e>
     bda:	da c0       	rjmp	.+436    	; 0xd90 <loop+0x542>
     bdc:	80 91 96 00 	lds	r24, 0x0096
     be0:	90 91 97 00 	lds	r25, 0x0097
     be4:	90 93 95 00 	sts	0x0095, r25
     be8:	80 93 94 00 	sts	0x0094, r24
     bec:	80 91 7b 00 	lds	r24, 0x007B
     bf0:	81 50       	subi	r24, 0x01	; 1
     bf2:	80 93 7b 00 	sts	0x007B, r24
     bf6:	88 23       	and	r24, r24
     bf8:	41 f4       	brne	.+16     	; 0xc0a <loop+0x3bc>
     bfa:	10 92 7a 00 	sts	0x007A, r1
     bfe:	10 92 79 00 	sts	0x0079, r1
     c02:	10 92 91 00 	sts	0x0091, r1
     c06:	10 92 90 00 	sts	0x0090, r1
     c0a:	18 e0       	ldi	r17, 0x08	; 8
     c0c:	b3 94       	inc	r11
     c0e:	9b cf       	rjmp	.-202    	; 0xb46 <loop+0x2f8>
     c10:	80 91 b1 00 	lds	r24, 0x00B1
     c14:	90 91 b2 00 	lds	r25, 0x00B2
     c18:	9e 01       	movw	r18, r28
     c1a:	28 1b       	sub	r18, r24
     c1c:	39 0b       	sbc	r19, r25
     c1e:	d0 93 b2 00 	sts	0x00B2, r29
     c22:	c0 93 b1 00 	sts	0x00B1, r28
     c26:	80 91 ad 00 	lds	r24, 0x00AD
     c2a:	90 91 ae 00 	lds	r25, 0x00AE
     c2e:	28 17       	cp	r18, r24
     c30:	39 07       	cpc	r19, r25
     c32:	08 f0       	brcs	.+2      	; 0xc36 <loop+0x3e8>
     c34:	57 c0       	rjmp	.+174    	; 0xce4 <loop+0x496>
     c36:	82 1b       	sub	r24, r18
     c38:	93 0b       	sbc	r25, r19
     c3a:	90 93 ae 00 	sts	0x00AE, r25
     c3e:	80 93 ad 00 	sts	0x00AD, r24
     c42:	65 dc       	rcall	.-1846   	; 0x50e <zc_run_detected_hl()>
     c44:	88 23       	and	r24, r24
     c46:	09 f0       	breq	.+2      	; 0xc4a <loop+0x3fc>
     c48:	68 c0       	rjmp	.+208    	; 0xd1a <loop+0x4cc>
     c4a:	14 e0       	ldi	r17, 0x04	; 4
     c4c:	b3 94       	inc	r11
     c4e:	7b cf       	rjmp	.-266    	; 0xb46 <loop+0x2f8>
     c50:	49 db       	rcall	.-2414   	; 0x2e4 <free_spin()>
     c52:	10 92 85 00 	sts	0x0085, r1
     c56:	10 92 84 00 	sts	0x0084, r1
     c5a:	44 24       	eor	r4, r4
     c5c:	55 24       	eor	r5, r5
     c5e:	90 2f       	mov	r25, r16
     c60:	9f 7e       	andi	r25, 0xEF	; 239
     c62:	29 2f       	mov	r18, r25
     c64:	27 70       	andi	r18, 0x07	; 7
     c66:	82 2f       	mov	r24, r18
     c68:	8d 5f       	subi	r24, 0xFD	; 253
     c6a:	86 30       	cpi	r24, 0x06	; 6
     c6c:	08 f0       	brcs	.+2      	; 0xc70 <loop+0x422>
     c6e:	86 50       	subi	r24, 0x06	; 6
     c70:	87 70       	andi	r24, 0x07	; 7
     c72:	98 7f       	andi	r25, 0xF8	; 248
     c74:	09 2f       	mov	r16, r25
     c76:	08 2b       	or	r16, r24
     c78:	d5 db       	rcall	.-2134   	; 0x424 <set_ac_state(unsigned char)>
     c7a:	d0 93 b2 00 	sts	0x00B2, r29
     c7e:	c0 93 b1 00 	sts	0x00B1, r28
     c82:	8f ef       	ldi	r24, 0xFF	; 255
     c84:	9f e7       	ldi	r25, 0x7F	; 127
     c86:	90 93 ae 00 	sts	0x00AE, r25
     c8a:	80 93 ad 00 	sts	0x00AD, r24
     c8e:	d0 93 ac 00 	sts	0x00AC, r29
     c92:	c0 93 ab 00 	sts	0x00AB, r28
     c96:	80 91 a4 00 	lds	r24, 0x00A4
     c9a:	90 91 a5 00 	lds	r25, 0x00A5
     c9e:	96 95       	lsr	r25
     ca0:	87 95       	ror	r24
     ca2:	96 95       	lsr	r25
     ca4:	87 95       	ror	r24
     ca6:	96 95       	lsr	r25
     ca8:	87 95       	ror	r24
     caa:	90 93 a8 00 	sts	0x00A8, r25
     cae:	80 93 a7 00 	sts	0x00A7, r24
     cb2:	00 64       	ori	r16, 0x40	; 64
     cb4:	11 e0       	ldi	r17, 0x01	; 1
     cb6:	46 cf       	rjmp	.-372    	; 0xb44 <loop+0x2f6>
     cb8:	35 dc       	rcall	.-1942   	; 0x524 <run_power_control()>
     cba:	07 ff       	sbrs	r16, 7
     cbc:	0d c0       	rjmp	.+26     	; 0xcd8 <loop+0x48a>
     cbe:	41 14       	cp	r4, r1
     cc0:	51 04       	cpc	r5, r1
     cc2:	51 f4       	brne	.+20     	; 0xcd8 <loop+0x48a>
     cc4:	10 92 a6 00 	sts	0x00A6, r1
     cc8:	ea ce       	rjmp	.-556    	; 0xa9e <loop+0x250>
     cca:	80 91 b3 00 	lds	r24, 0x00B3
     cce:	90 91 b4 00 	lds	r25, 0x00B4
     cd2:	56 dc       	rcall	.-1876   	; 0x580 <run_timing_control(unsigned int)>
     cd4:	16 e0       	ldi	r17, 0x06	; 6
     cd6:	36 cf       	rjmp	.-404    	; 0xb44 <loop+0x2f6>
     cd8:	d0 93 ac 00 	sts	0x00AC, r29
     cdc:	c0 93 ab 00 	sts	0x00AB, r28
     ce0:	11 e0       	ldi	r17, 0x01	; 1
     ce2:	30 cf       	rjmp	.-416    	; 0xb44 <loop+0x2f6>
     ce4:	80 91 af 00 	lds	r24, 0x00AF
     ce8:	90 91 b0 00 	lds	r25, 0x00B0
     cec:	90 93 ae 00 	sts	0x00AE, r25
     cf0:	80 93 ad 00 	sts	0x00AD, r24
     cf4:	06 ff       	sbrs	r16, 6
     cf6:	ac cf       	rjmp	.-168    	; 0xc50 <loop+0x402>
     cf8:	a0 92 a6 00 	sts	0x00A6, r10
     cfc:	d0 ce       	rjmp	.-608    	; 0xa9e <loop+0x250>
     cfe:	82 1b       	sub	r24, r18
     d00:	93 0b       	sbc	r25, r19
     d02:	90 93 b6 00 	sts	0x00B6, r25
     d06:	80 93 b5 00 	sts	0x00B5, r24
     d0a:	1c cf       	rjmp	.-456    	; 0xb44 <loop+0x2f6>
     d0c:	82 1b       	sub	r24, r18
     d0e:	93 0b       	sbc	r25, r19
     d10:	90 93 a8 00 	sts	0x00A8, r25
     d14:	80 93 a7 00 	sts	0x00A7, r24
     d18:	15 cf       	rjmp	.-470    	; 0xb44 <loop+0x2f6>
     d1a:	ae 01       	movw	r20, r28
     d1c:	4a 52       	subi	r20, 0x2A	; 42
     d1e:	50 40       	sbci	r21, 0x00	; 0
     d20:	06 ff       	sbrs	r16, 6
     d22:	1b c0       	rjmp	.+54     	; 0xd5a <loop+0x50c>
     d24:	80 91 b3 00 	lds	r24, 0x00B3
     d28:	90 91 b4 00 	lds	r25, 0x00B4
     d2c:	9a 01       	movw	r18, r20
     d2e:	28 1b       	sub	r18, r24
     d30:	39 0b       	sbc	r19, r25
     d32:	c9 01       	movw	r24, r18
     d34:	50 93 b4 00 	sts	0x00B4, r21
     d38:	40 93 b3 00 	sts	0x00B3, r20
     d3c:	96 95       	lsr	r25
     d3e:	87 95       	ror	r24
     d40:	90 93 a5 00 	sts	0x00A5, r25
     d44:	80 93 a4 00 	sts	0x00A4, r24
     d48:	96 95       	lsr	r25
     d4a:	87 95       	ror	r24
     d4c:	90 93 bf 00 	sts	0x00BF, r25
     d50:	80 93 be 00 	sts	0x00BE, r24
     d54:	0f 7b       	andi	r16, 0xBF	; 191
     d56:	15 e0       	ldi	r17, 0x05	; 5
     d58:	f5 ce       	rjmp	.-534    	; 0xb44 <loop+0x2f6>
     d5a:	80 91 b3 00 	lds	r24, 0x00B3
     d5e:	90 91 b4 00 	lds	r25, 0x00B4
     d62:	9a 01       	movw	r18, r20
     d64:	28 1b       	sub	r18, r24
     d66:	39 0b       	sbc	r19, r25
     d68:	50 93 b4 00 	sts	0x00B4, r21
     d6c:	40 93 b3 00 	sts	0x00B3, r20
     d70:	80 91 be 00 	lds	r24, 0x00BE
     d74:	90 91 bf 00 	lds	r25, 0x00BF
     d78:	82 0f       	add	r24, r18
     d7a:	93 1f       	adc	r25, r19
     d7c:	90 93 a5 00 	sts	0x00A5, r25
     d80:	80 93 a4 00 	sts	0x00A4, r24
     d84:	30 93 bf 00 	sts	0x00BF, r19
     d88:	20 93 be 00 	sts	0x00BE, r18
     d8c:	15 e0       	ldi	r17, 0x05	; 5
     d8e:	da ce       	rjmp	.-588    	; 0xb44 <loop+0x2f6>
     d90:	82 1b       	sub	r24, r18
     d92:	93 0b       	sbc	r25, r19
     d94:	90 93 95 00 	sts	0x0095, r25
     d98:	80 93 94 00 	sts	0x0094, r24
     d9c:	18 e0       	ldi	r17, 0x08	; 8
     d9e:	36 cf       	rjmp	.-404    	; 0xc0c <loop+0x3be>

00000da0 <read_storage()>:
     da0:	81 e0       	ldi	r24, 0x01	; 1
     da2:	ea d0       	rcall	.+468    	; 0xf78 <nvram_open>
     da4:	60 91 63 00 	lds	r22, 0x0063
     da8:	70 91 64 00 	lds	r23, 0x0064
     dac:	80 91 61 00 	lds	r24, 0x0061
     db0:	90 91 62 00 	lds	r25, 0x0062
     db4:	e7 d0       	rcall	.+462    	; 0xf84 <nvram_read>
     db6:	60 91 67 00 	lds	r22, 0x0067
     dba:	70 91 68 00 	lds	r23, 0x0068
     dbe:	80 91 65 00 	lds	r24, 0x0065
     dc2:	90 91 66 00 	lds	r25, 0x0066
     dc6:	de d0       	rcall	.+444    	; 0xf84 <nvram_read>
     dc8:	dc c0       	rjmp	.+440    	; 0xf82 <nvram_close>

00000dca <write_storage()>:
     dca:	82 e0       	ldi	r24, 0x02	; 2
     dcc:	d5 d0       	rcall	.+426    	; 0xf78 <nvram_open>
     dce:	60 91 63 00 	lds	r22, 0x0063
     dd2:	70 91 64 00 	lds	r23, 0x0064
     dd6:	80 91 61 00 	lds	r24, 0x0061
     dda:	90 91 62 00 	lds	r25, 0x0062
     dde:	e8 d0       	rcall	.+464    	; 0xfb0 <nvram_write>
     de0:	60 91 67 00 	lds	r22, 0x0067
     de4:	70 91 68 00 	lds	r23, 0x0068
     de8:	80 91 65 00 	lds	r24, 0x0065
     dec:	90 91 66 00 	lds	r25, 0x0066
     df0:	df d0       	rcall	.+446    	; 0xfb0 <nvram_write>
     df2:	c7 c0       	rjmp	.+398    	; 0xf82 <nvram_close>

00000df4 <check_for_stick_cal()>:
     df4:	80 91 77 00 	lds	r24, 0x0077
     df8:	81 11       	cpse	r24, r1
     dfa:	08 95       	ret
     dfc:	60 91 7e 00 	lds	r22, 0x007E
     e00:	70 91 7f 00 	lds	r23, 0x007F
     e04:	80 91 7c 00 	lds	r24, 0x007C
     e08:	90 91 7d 00 	lds	r25, 0x007D
     e0c:	4a e0       	ldi	r20, 0x0A	; 10
     e0e:	bc dc       	rcall	.-1672   	; 0x788 <wait_for(unsigned int, unsigned int, unsigned char)>
     e10:	5b da       	rcall	.-2890   	; 0x2c8 <rx_get_frame()>
     e12:	89 56       	subi	r24, 0x69	; 105
     e14:	9b 40       	sbci	r25, 0x0B	; 11
     e16:	88 f3       	brcs	.-30     	; 0xdfa <check_for_stick_cal()+0x6>
     e18:	d4 dc       	rcall	.-1624   	; 0x7c2 <get_stable_ppm_value()>
     e1a:	00 97       	sbiw	r24, 0x00	; 0
     e1c:	e9 f3       	breq	.-6      	; 0xe18 <check_for_stick_cal()+0x24>
     e1e:	96 95       	lsr	r25
     e20:	87 95       	ror	r24
     e22:	90 93 71 00 	sts	0x0071, r25
     e26:	80 93 70 00 	sts	0x0070, r24
     e2a:	8a e0       	ldi	r24, 0x0A	; 10
     e2c:	6a e0       	ldi	r22, 0x0A	; 10
     e2e:	63 dc       	rcall	.-1850   	; 0x6f6 <beep(unsigned char, unsigned char)>
     e30:	88 ec       	ldi	r24, 0xC8	; 200
     e32:	90 e0       	ldi	r25, 0x00	; 0
     e34:	c0 d9       	rcall	.-3200   	; 0x1b6 <__delay_ms(unsigned int)>
     e36:	8a e0       	ldi	r24, 0x0A	; 10
     e38:	6a e0       	ldi	r22, 0x0A	; 10
     e3a:	5d dc       	rcall	.-1862   	; 0x6f6 <beep(unsigned char, unsigned char)>
     e3c:	80 91 7c 00 	lds	r24, 0x007C
     e40:	90 91 7d 00 	lds	r25, 0x007D
     e44:	68 e6       	ldi	r22, 0x68	; 104
     e46:	7b e0       	ldi	r23, 0x0B	; 11
     e48:	49 e1       	ldi	r20, 0x19	; 25
     e4a:	9e dc       	rcall	.-1732   	; 0x788 <wait_for(unsigned int, unsigned int, unsigned char)>
     e4c:	ba dc       	rcall	.-1676   	; 0x7c2 <get_stable_ppm_value()>
     e4e:	00 97       	sbiw	r24, 0x00	; 0
     e50:	e9 f3       	breq	.-6      	; 0xe4c <check_for_stick_cal()+0x58>
     e52:	fc 01       	movw	r30, r24
     e54:	f6 95       	lsr	r31
     e56:	e7 95       	ror	r30
     e58:	20 91 70 00 	lds	r18, 0x0070
     e5c:	30 91 71 00 	lds	r19, 0x0071
     e60:	c9 01       	movw	r24, r18
     e62:	8e 1b       	sub	r24, r30
     e64:	9f 0b       	sbc	r25, r31
     e66:	88 0f       	add	r24, r24
     e68:	99 1f       	adc	r25, r25
     e6a:	88 0f       	add	r24, r24
     e6c:	99 1f       	adc	r25, r25
     e6e:	64 e6       	ldi	r22, 0x64	; 100
     e70:	70 e0       	ldi	r23, 0x00	; 0
     e72:	f3 d0       	rcall	.+486    	; 0x105a <__udivmodhi4>
     e74:	26 1b       	sub	r18, r22
     e76:	37 0b       	sbc	r19, r23
     e78:	30 93 71 00 	sts	0x0071, r19
     e7c:	20 93 70 00 	sts	0x0070, r18
     e80:	e6 0f       	add	r30, r22
     e82:	f7 1f       	adc	r31, r23
     e84:	f0 93 6f 00 	sts	0x006F, r31
     e88:	e0 93 6e 00 	sts	0x006E, r30
     e8c:	9e df       	rcall	.-196    	; 0xdca <write_storage()>
     e8e:	d0 cb       	rjmp	.-2144   	; 0x630 <setup_to_rt()>

00000e90 <setup>:
     e90:	a1 e0       	ldi	r26, 0x01	; 1
     e92:	b0 e0       	ldi	r27, 0x00	; 0
     e94:	ed e4       	ldi	r30, 0x4D	; 77
     e96:	f7 e0       	ldi	r31, 0x07	; 7
     e98:	38 c1       	rjmp	.+624    	; 0x110a <__prologue_saves__+0x1e>
     e9a:	f8 94       	cli
     e9c:	19 be       	out	0x39, r1	; 57
     e9e:	1f bc       	out	0x2f, r1	; 47
     ea0:	12 e0       	ldi	r17, 0x02	; 2
     ea2:	1e bd       	out	0x2e, r17	; 46
     ea4:	18 ba       	out	0x18, r1	; 24
     ea6:	81 e3       	ldi	r24, 0x31	; 49
     ea8:	87 bb       	out	0x17, r24	; 23
     eaa:	8a e2       	ldi	r24, 0x2A	; 42
     eac:	85 bb       	out	0x15, r24	; 21
     eae:	8a e3       	ldi	r24, 0x3A	; 58
     eb0:	84 bb       	out	0x14, r24	; 20
     eb2:	80 e1       	ldi	r24, 0x10	; 16
     eb4:	82 bb       	out	0x12, r24	; 18
     eb6:	80 e3       	ldi	r24, 0x30	; 48
     eb8:	81 bb       	out	0x11, r24	; 17
     eba:	37 98       	cbi	0x06, 7	; 6
     ebc:	80 b7       	in	r24, 0x30	; 48
     ebe:	88 60       	ori	r24, 0x08	; 8
     ec0:	80 bf       	out	0x30, r24	; 48
     ec2:	10 da       	rcall	.-3040   	; 0x2e4 <free_spin()>
     ec4:	95 9a       	sbi	0x12, 5	; 18
     ec6:	ac 9a       	sbi	0x15, 4	; 21
     ec8:	c0 9a       	sbi	0x18, 0	; 24
     eca:	85 e0       	ldi	r24, 0x05	; 5
     ecc:	90 e0       	ldi	r25, 0x00	; 0
     ece:	73 d9       	rcall	.-3354   	; 0x1b6 <__delay_ms(unsigned int)>
     ed0:	95 98       	cbi	0x12, 5	; 18
     ed2:	ac 98       	cbi	0x15, 4	; 21
     ed4:	c0 98       	cbi	0x18, 0	; 24
     ed6:	92 9a       	sbi	0x12, 2	; 18
     ed8:	85 b7       	in	r24, 0x35	; 53
     eda:	8c 7f       	andi	r24, 0xFC	; 252
     edc:	81 60       	ori	r24, 0x01	; 1
     ede:	85 bf       	out	0x35, r24	; 53
     ee0:	8b b7       	in	r24, 0x3b	; 59
     ee2:	80 64       	ori	r24, 0x40	; 64
     ee4:	8b bf       	out	0x3b, r24	; 59
     ee6:	10 92 91 00 	sts	0x0091, r1
     eea:	10 92 90 00 	sts	0x0090, r1
     eee:	28 ee       	ldi	r18, 0xE8	; 232
     ef0:	33 e0       	ldi	r19, 0x03	; 3
     ef2:	30 93 73 00 	sts	0x0073, r19
     ef6:	20 93 72 00 	sts	0x0072, r18
     efa:	84 ed       	ldi	r24, 0xD4	; 212
     efc:	93 e0       	ldi	r25, 0x03	; 3
     efe:	90 93 6b 00 	sts	0x006B, r25
     f02:	80 93 6a 00 	sts	0x006A, r24
     f06:	84 ec       	ldi	r24, 0xC4	; 196
     f08:	99 e0       	ldi	r25, 0x09	; 9
     f0a:	90 93 6d 00 	sts	0x006D, r25
     f0e:	80 93 6c 00 	sts	0x006C, r24
     f12:	30 93 6f 00 	sts	0x006F, r19
     f16:	20 93 6e 00 	sts	0x006E, r18
     f1a:	80 ed       	ldi	r24, 0xD0	; 208
     f1c:	97 e0       	ldi	r25, 0x07	; 7
     f1e:	90 93 71 00 	sts	0x0071, r25
     f22:	80 93 70 00 	sts	0x0070, r24
     f26:	10 93 74 00 	sts	0x0074, r17
     f2a:	b5 d9       	rcall	.-3222   	; 0x296 <init_os125()>
     f2c:	8f ef       	ldi	r24, 0xFF	; 255
     f2e:	9f ef       	ldi	r25, 0xFF	; 255
     f30:	90 93 97 00 	sts	0x0097, r25
     f34:	80 93 96 00 	sts	0x0096, r24
     f38:	8d e1       	ldi	r24, 0x1D	; 29
     f3a:	89 83       	std	Y+1, r24	; 0x01
     f3c:	81 e0       	ldi	r24, 0x01	; 1
     f3e:	1c d0       	rcall	.+56     	; 0xf78 <nvram_open>
     f40:	ce 01       	movw	r24, r28
     f42:	01 96       	adiw	r24, 0x01	; 1
     f44:	61 e0       	ldi	r22, 0x01	; 1
     f46:	70 e0       	ldi	r23, 0x00	; 0
     f48:	1d d0       	rcall	.+58     	; 0xf84 <nvram_read>
     f4a:	1b d0       	rcall	.+54     	; 0xf82 <nvram_close>
     f4c:	89 81       	ldd	r24, Y+1	; 0x01
     f4e:	8d 31       	cpi	r24, 0x1D	; 29
     f50:	89 f0       	breq	.+34     	; 0xf74 <setup+0xe4>
     f52:	78 94       	sei
     f54:	10 92 85 00 	sts	0x0085, r1
     f58:	10 92 84 00 	sts	0x0084, r1
     f5c:	44 24       	eor	r4, r4
     f5e:	55 24       	eor	r5, r5
     f60:	0f 7e       	andi	r16, 0xEF	; 239
     f62:	66 db       	rcall	.-2356   	; 0x630 <setup_to_rt()>
     f64:	8a ef       	ldi	r24, 0xFA	; 250
     f66:	90 e0       	ldi	r25, 0x00	; 0
     f68:	26 d9       	rcall	.-3508   	; 0x1b6 <__delay_ms(unsigned int)>
     f6a:	f6 db       	rcall	.-2068   	; 0x758 <startup_sound()>
     f6c:	43 df       	rcall	.-378    	; 0xdf4 <check_for_stick_cal()>
     f6e:	21 96       	adiw	r28, 0x01	; 1
     f70:	e3 e0       	ldi	r30, 0x03	; 3
     f72:	e7 c0       	rjmp	.+462    	; 0x1142 <__epilogue_restores__+0x1e>
     f74:	15 df       	rcall	.-470    	; 0xda0 <read_storage()>
     f76:	ed cf       	rjmp	.-38     	; 0xf52 <setup+0xc2>

00000f78 <nvram_open>:
     f78:	10 92 c9 00 	sts	0x00C9, r1
     f7c:	10 92 c8 00 	sts	0x00C8, r1
     f80:	08 95       	ret

00000f82 <nvram_close>:
     f82:	08 95       	ret

00000f84 <nvram_read>:
     f84:	0f 93       	push	r16
     f86:	1f 93       	push	r17
     f88:	8b 01       	movw	r16, r22
     f8a:	60 91 c8 00 	lds	r22, 0x00C8
     f8e:	70 91 c9 00 	lds	r23, 0x00C9
     f92:	a8 01       	movw	r20, r16
     f94:	e2 d0       	rcall	.+452    	; 0x115a <__eerd_block_m8>
     f96:	80 91 c8 00 	lds	r24, 0x00C8
     f9a:	90 91 c9 00 	lds	r25, 0x00C9
     f9e:	80 0f       	add	r24, r16
     fa0:	91 1f       	adc	r25, r17
     fa2:	90 93 c9 00 	sts	0x00C9, r25
     fa6:	80 93 c8 00 	sts	0x00C8, r24
     faa:	1f 91       	pop	r17
     fac:	0f 91       	pop	r16
     fae:	08 95       	ret

00000fb0 <nvram_write>:
     fb0:	a0 e0       	ldi	r26, 0x00	; 0
     fb2:	b0 e0       	ldi	r27, 0x00	; 0
     fb4:	ed ed       	ldi	r30, 0xDD	; 221
     fb6:	f7 e0       	ldi	r31, 0x07	; 7
     fb8:	a3 c0       	rjmp	.+326    	; 0x1100 <__prologue_saves__+0x14>
     fba:	9c 01       	movw	r18, r24
     fbc:	6b 01       	movw	r12, r22
     fbe:	80 91 c8 00 	lds	r24, 0x00C8
     fc2:	90 91 c9 00 	lds	r25, 0x00C9
     fc6:	61 15       	cp	r22, r1
     fc8:	71 05       	cpc	r23, r1
     fca:	b9 f0       	breq	.+46     	; 0xffa <nvram_write+0x4a>
     fcc:	8c 01       	movw	r16, r24
     fce:	79 01       	movw	r14, r18
     fd0:	eb 01       	movw	r28, r22
     fd2:	05 c0       	rjmp	.+10     	; 0xfde <nvram_write+0x2e>
     fd4:	0f 5f       	subi	r16, 0xFF	; 255
     fd6:	1f 4f       	sbci	r17, 0xFF	; 255
     fd8:	08 94       	sec
     fda:	e1 1c       	adc	r14, r1
     fdc:	f1 1c       	adc	r15, r1
     fde:	c8 01       	movw	r24, r16
     fe0:	cc d0       	rcall	.+408    	; 0x117a <__eerd_byte_m8>
     fe2:	f7 01       	movw	r30, r14
     fe4:	60 81       	ld	r22, Z
     fe6:	86 17       	cp	r24, r22
     fe8:	11 f0       	breq	.+4      	; 0xfee <nvram_write+0x3e>
     fea:	c8 01       	movw	r24, r16
     fec:	ce d0       	rcall	.+412    	; 0x118a <__eewr_byte_m8>
     fee:	21 97       	sbiw	r28, 0x01	; 1
     ff0:	89 f7       	brne	.-30     	; 0xfd4 <nvram_write+0x24>
     ff2:	80 91 c8 00 	lds	r24, 0x00C8
     ff6:	90 91 c9 00 	lds	r25, 0x00C9
     ffa:	8c 0d       	add	r24, r12
     ffc:	9d 1d       	adc	r25, r13
     ffe:	90 93 c9 00 	sts	0x00C9, r25
    1002:	80 93 c8 00 	sts	0x00C8, r24
    1006:	cd b7       	in	r28, 0x3d	; 61
    1008:	de b7       	in	r29, 0x3e	; 62
    100a:	e8 e0       	ldi	r30, 0x08	; 8
    100c:	95 c0       	rjmp	.+298    	; 0x1138 <__epilogue_restores__+0x14>

0000100e <main>:
    100e:	04 d0       	rcall	.+8      	; 0x1018 <init>
    1010:	3f df       	rcall	.-386    	; 0xe90 <setup>
    1012:	1d dc       	rcall	.-1990   	; 0x84e <loop>
    1014:	1c dc       	rcall	.-1992   	; 0x84e <loop>
    1016:	fd cf       	rjmp	.-6      	; 0x1012 <main+0x4>

00001018 <init>:
    1018:	78 94       	sei
    101a:	08 95       	ret

0000101c <__mulsi3>:
    101c:	62 9f       	mul	r22, r18
    101e:	d0 01       	movw	r26, r0
    1020:	73 9f       	mul	r23, r19
    1022:	f0 01       	movw	r30, r0
    1024:	82 9f       	mul	r24, r18
    1026:	e0 0d       	add	r30, r0
    1028:	f1 1d       	adc	r31, r1
    102a:	64 9f       	mul	r22, r20
    102c:	e0 0d       	add	r30, r0
    102e:	f1 1d       	adc	r31, r1
    1030:	92 9f       	mul	r25, r18
    1032:	f0 0d       	add	r31, r0
    1034:	83 9f       	mul	r24, r19
    1036:	f0 0d       	add	r31, r0
    1038:	74 9f       	mul	r23, r20
    103a:	f0 0d       	add	r31, r0
    103c:	65 9f       	mul	r22, r21
    103e:	f0 0d       	add	r31, r0
    1040:	99 27       	eor	r25, r25
    1042:	72 9f       	mul	r23, r18
    1044:	b0 0d       	add	r27, r0
    1046:	e1 1d       	adc	r30, r1
    1048:	f9 1f       	adc	r31, r25
    104a:	63 9f       	mul	r22, r19
    104c:	b0 0d       	add	r27, r0
    104e:	e1 1d       	adc	r30, r1
    1050:	f9 1f       	adc	r31, r25
    1052:	bd 01       	movw	r22, r26
    1054:	cf 01       	movw	r24, r30
    1056:	11 24       	eor	r1, r1
    1058:	08 95       	ret

0000105a <__udivmodhi4>:
    105a:	aa 1b       	sub	r26, r26
    105c:	bb 1b       	sub	r27, r27
    105e:	51 e1       	ldi	r21, 0x11	; 17
    1060:	07 c0       	rjmp	.+14     	; 0x1070 <__udivmodhi4_ep>

00001062 <__udivmodhi4_loop>:
    1062:	aa 1f       	adc	r26, r26
    1064:	bb 1f       	adc	r27, r27
    1066:	a6 17       	cp	r26, r22
    1068:	b7 07       	cpc	r27, r23
    106a:	10 f0       	brcs	.+4      	; 0x1070 <__udivmodhi4_ep>
    106c:	a6 1b       	sub	r26, r22
    106e:	b7 0b       	sbc	r27, r23

00001070 <__udivmodhi4_ep>:
    1070:	88 1f       	adc	r24, r24
    1072:	99 1f       	adc	r25, r25
    1074:	5a 95       	dec	r21
    1076:	a9 f7       	brne	.-22     	; 0x1062 <__udivmodhi4_loop>
    1078:	80 95       	com	r24
    107a:	90 95       	com	r25
    107c:	bc 01       	movw	r22, r24
    107e:	cd 01       	movw	r24, r26
    1080:	08 95       	ret

00001082 <__divmodhi4>:
    1082:	97 fb       	bst	r25, 7
    1084:	09 2e       	mov	r0, r25
    1086:	07 26       	eor	r0, r23
    1088:	0a d0       	rcall	.+20     	; 0x109e <__divmodhi4_neg1>
    108a:	77 fd       	sbrc	r23, 7
    108c:	04 d0       	rcall	.+8      	; 0x1096 <__divmodhi4_neg2>
    108e:	e5 df       	rcall	.-54     	; 0x105a <__udivmodhi4>
    1090:	06 d0       	rcall	.+12     	; 0x109e <__divmodhi4_neg1>
    1092:	00 20       	and	r0, r0
    1094:	1a f4       	brpl	.+6      	; 0x109c <__divmodhi4_exit>

00001096 <__divmodhi4_neg2>:
    1096:	70 95       	com	r23
    1098:	61 95       	neg	r22
    109a:	7f 4f       	sbci	r23, 0xFF	; 255

0000109c <__divmodhi4_exit>:
    109c:	08 95       	ret

0000109e <__divmodhi4_neg1>:
    109e:	f6 f7       	brtc	.-4      	; 0x109c <__divmodhi4_exit>
    10a0:	90 95       	com	r25
    10a2:	81 95       	neg	r24
    10a4:	9f 4f       	sbci	r25, 0xFF	; 255
    10a6:	08 95       	ret

000010a8 <__udivmodsi4>:
    10a8:	a1 e2       	ldi	r26, 0x21	; 33
    10aa:	1a 2e       	mov	r1, r26
    10ac:	aa 1b       	sub	r26, r26
    10ae:	bb 1b       	sub	r27, r27
    10b0:	fd 01       	movw	r30, r26
    10b2:	0d c0       	rjmp	.+26     	; 0x10ce <__udivmodsi4_ep>

000010b4 <__udivmodsi4_loop>:
    10b4:	aa 1f       	adc	r26, r26
    10b6:	bb 1f       	adc	r27, r27
    10b8:	ee 1f       	adc	r30, r30
    10ba:	ff 1f       	adc	r31, r31
    10bc:	a2 17       	cp	r26, r18
    10be:	b3 07       	cpc	r27, r19
    10c0:	e4 07       	cpc	r30, r20
    10c2:	f5 07       	cpc	r31, r21
    10c4:	20 f0       	brcs	.+8      	; 0x10ce <__udivmodsi4_ep>
    10c6:	a2 1b       	sub	r26, r18
    10c8:	b3 0b       	sbc	r27, r19
    10ca:	e4 0b       	sbc	r30, r20
    10cc:	f5 0b       	sbc	r31, r21

000010ce <__udivmodsi4_ep>:
    10ce:	66 1f       	adc	r22, r22
    10d0:	77 1f       	adc	r23, r23
    10d2:	88 1f       	adc	r24, r24
    10d4:	99 1f       	adc	r25, r25
    10d6:	1a 94       	dec	r1
    10d8:	69 f7       	brne	.-38     	; 0x10b4 <__udivmodsi4_loop>
    10da:	60 95       	com	r22
    10dc:	70 95       	com	r23
    10de:	80 95       	com	r24
    10e0:	90 95       	com	r25
    10e2:	9b 01       	movw	r18, r22
    10e4:	ac 01       	movw	r20, r24
    10e6:	bd 01       	movw	r22, r26
    10e8:	cf 01       	movw	r24, r30
    10ea:	08 95       	ret

000010ec <__prologue_saves__>:
    10ec:	2f 92       	push	r2
    10ee:	3f 92       	push	r3
    10f0:	4f 92       	push	r4
    10f2:	5f 92       	push	r5
    10f4:	6f 92       	push	r6
    10f6:	7f 92       	push	r7
    10f8:	8f 92       	push	r8
    10fa:	9f 92       	push	r9
    10fc:	af 92       	push	r10
    10fe:	bf 92       	push	r11
    1100:	cf 92       	push	r12
    1102:	df 92       	push	r13
    1104:	ef 92       	push	r14
    1106:	ff 92       	push	r15
    1108:	0f 93       	push	r16
    110a:	1f 93       	push	r17
    110c:	cf 93       	push	r28
    110e:	df 93       	push	r29
    1110:	cd b7       	in	r28, 0x3d	; 61
    1112:	de b7       	in	r29, 0x3e	; 62
    1114:	ca 1b       	sub	r28, r26
    1116:	db 0b       	sbc	r29, r27
    1118:	0f b6       	in	r0, 0x3f	; 63
    111a:	f8 94       	cli
    111c:	de bf       	out	0x3e, r29	; 62
    111e:	0f be       	out	0x3f, r0	; 63
    1120:	cd bf       	out	0x3d, r28	; 61
    1122:	09 94       	ijmp

00001124 <__epilogue_restores__>:
    1124:	2a 88       	ldd	r2, Y+18	; 0x12
    1126:	39 88       	ldd	r3, Y+17	; 0x11
    1128:	48 88       	ldd	r4, Y+16	; 0x10
    112a:	5f 84       	ldd	r5, Y+15	; 0x0f
    112c:	6e 84       	ldd	r6, Y+14	; 0x0e
    112e:	7d 84       	ldd	r7, Y+13	; 0x0d
    1130:	8c 84       	ldd	r8, Y+12	; 0x0c
    1132:	9b 84       	ldd	r9, Y+11	; 0x0b
    1134:	aa 84       	ldd	r10, Y+10	; 0x0a
    1136:	b9 84       	ldd	r11, Y+9	; 0x09
    1138:	c8 84       	ldd	r12, Y+8	; 0x08
    113a:	df 80       	ldd	r13, Y+7	; 0x07
    113c:	ee 80       	ldd	r14, Y+6	; 0x06
    113e:	fd 80       	ldd	r15, Y+5	; 0x05
    1140:	0c 81       	ldd	r16, Y+4	; 0x04
    1142:	1b 81       	ldd	r17, Y+3	; 0x03
    1144:	aa 81       	ldd	r26, Y+2	; 0x02
    1146:	b9 81       	ldd	r27, Y+1	; 0x01
    1148:	ce 0f       	add	r28, r30
    114a:	d1 1d       	adc	r29, r1
    114c:	0f b6       	in	r0, 0x3f	; 63
    114e:	f8 94       	cli
    1150:	de bf       	out	0x3e, r29	; 62
    1152:	0f be       	out	0x3f, r0	; 63
    1154:	cd bf       	out	0x3d, r28	; 61
    1156:	ed 01       	movw	r28, r26
    1158:	08 95       	ret

0000115a <__eerd_block_m8>:
    115a:	dc 01       	movw	r26, r24
    115c:	cb 01       	movw	r24, r22

0000115e <__eerd_blraw_m8>:
    115e:	fc 01       	movw	r30, r24
    1160:	e1 99       	sbic	0x1c, 1	; 28
    1162:	fe cf       	rjmp	.-4      	; 0x1160 <__eerd_blraw_m8+0x2>
    1164:	06 c0       	rjmp	.+12     	; 0x1172 <__eerd_blraw_m8+0x14>
    1166:	ff bb       	out	0x1f, r31	; 31
    1168:	ee bb       	out	0x1e, r30	; 30
    116a:	e0 9a       	sbi	0x1c, 0	; 28
    116c:	31 96       	adiw	r30, 0x01	; 1
    116e:	0d b2       	in	r0, 0x1d	; 29
    1170:	0d 92       	st	X+, r0
    1172:	41 50       	subi	r20, 0x01	; 1
    1174:	50 40       	sbci	r21, 0x00	; 0
    1176:	b8 f7       	brcc	.-18     	; 0x1166 <__eerd_blraw_m8+0x8>
    1178:	08 95       	ret

0000117a <__eerd_byte_m8>:
    117a:	e1 99       	sbic	0x1c, 1	; 28
    117c:	fe cf       	rjmp	.-4      	; 0x117a <__eerd_byte_m8>
    117e:	9f bb       	out	0x1f, r25	; 31
    1180:	8e bb       	out	0x1e, r24	; 30
    1182:	e0 9a       	sbi	0x1c, 0	; 28
    1184:	99 27       	eor	r25, r25
    1186:	8d b3       	in	r24, 0x1d	; 29
    1188:	08 95       	ret

0000118a <__eewr_byte_m8>:
    118a:	26 2f       	mov	r18, r22

0000118c <__eewr_r18_m8>:
    118c:	e1 99       	sbic	0x1c, 1	; 28
    118e:	fe cf       	rjmp	.-4      	; 0x118c <__eewr_r18_m8>
    1190:	9f bb       	out	0x1f, r25	; 31
    1192:	8e bb       	out	0x1e, r24	; 30
    1194:	2d bb       	out	0x1d, r18	; 29
    1196:	0f b6       	in	r0, 0x3f	; 63
    1198:	f8 94       	cli
    119a:	e2 9a       	sbi	0x1c, 2	; 28
    119c:	e1 9a       	sbi	0x1c, 1	; 28
    119e:	0f be       	out	0x3f, r0	; 63
    11a0:	01 96       	adiw	r24, 0x01	; 1
    11a2:	08 95       	ret

000011a4 <_exit>:
    11a4:	f8 94       	cli

000011a6 <__stop_program>:
    11a6:	ff cf       	rjmp	.-2      	; 0x11a6 <__stop_program>
