
bin/avr/wii_esc_ng.elf:     file format elf32-avr


Disassembly of section .text:

00000000 <__vectors>:
       0:	81 c0       	rjmp	.+258    	; 0x104 <__ctors_end>
       2:	e6 c0       	rjmp	.+460    	; 0x1d0 <__vector_1>
       4:	9a c0       	rjmp	.+308    	; 0x13a <__bad_interrupt>
       6:	99 c0       	rjmp	.+306    	; 0x13a <__bad_interrupt>
       8:	98 c0       	rjmp	.+304    	; 0x13a <__bad_interrupt>
       a:	97 c0       	rjmp	.+302    	; 0x13a <__bad_interrupt>
       c:	96 c0       	rjmp	.+300    	; 0x13a <__bad_interrupt>
       e:	95 c0       	rjmp	.+298    	; 0x13a <__bad_interrupt>
      10:	94 c0       	rjmp	.+296    	; 0x13a <__bad_interrupt>
      12:	93 c0       	rjmp	.+294    	; 0x13a <__bad_interrupt>
      14:	92 c0       	rjmp	.+292    	; 0x13a <__bad_interrupt>
      16:	91 c0       	rjmp	.+290    	; 0x13a <__bad_interrupt>
      18:	90 c0       	rjmp	.+288    	; 0x13a <__bad_interrupt>
      1a:	8f c0       	rjmp	.+286    	; 0x13a <__bad_interrupt>
      1c:	8e c0       	rjmp	.+284    	; 0x13a <__bad_interrupt>
      1e:	8d c0       	rjmp	.+282    	; 0x13a <__bad_interrupt>
      20:	8c c0       	rjmp	.+280    	; 0x13a <__bad_interrupt>
      22:	8b c0       	rjmp	.+278    	; 0x13a <__bad_interrupt>
      24:	8a c0       	rjmp	.+276    	; 0x13a <__bad_interrupt>
      26:	71 c1       	rjmp	.+738    	; 0x30a <set_pwm_on_comp_on(unsigned char)+0x10>
      28:	74 c1       	rjmp	.+744    	; 0x312 <set_pwm_on_comp_on(unsigned char)+0x18>
      2a:	73 c1       	rjmp	.+742    	; 0x312 <set_pwm_on_comp_on(unsigned char)+0x18>
      2c:	70 c1       	rjmp	.+736    	; 0x30e <set_pwm_on_comp_on(unsigned char)+0x14>
      2e:	6f c1       	rjmp	.+734    	; 0x30e <set_pwm_on_comp_on(unsigned char)+0x14>
      30:	6c c1       	rjmp	.+728    	; 0x30a <set_pwm_on_comp_on(unsigned char)+0x10>
      32:	6c c1       	rjmp	.+728    	; 0x30c <set_pwm_on_comp_on(unsigned char)+0x12>
      34:	6b c1       	rjmp	.+726    	; 0x30c <set_pwm_on_comp_on(unsigned char)+0x12>
      36:	69 c1       	rjmp	.+722    	; 0x30a <set_pwm_on_comp_on(unsigned char)+0x10>
      38:	6a c1       	rjmp	.+724    	; 0x30e <set_pwm_on_comp_on(unsigned char)+0x14>
      3a:	69 c1       	rjmp	.+722    	; 0x30e <set_pwm_on_comp_on(unsigned char)+0x14>
      3c:	6a c1       	rjmp	.+724    	; 0x312 <set_pwm_on_comp_on(unsigned char)+0x18>
      3e:	69 c1       	rjmp	.+722    	; 0x312 <set_pwm_on_comp_on(unsigned char)+0x18>
      40:	64 c1       	rjmp	.+712    	; 0x30a <set_pwm_on_comp_on(unsigned char)+0x10>
      42:	73 c1       	rjmp	.+742    	; 0x32a <set_pwm_on(unsigned char)+0x14>
      44:	77 c1       	rjmp	.+750    	; 0x334 <set_pwm_on(unsigned char)+0x1e>
      46:	76 c1       	rjmp	.+748    	; 0x334 <set_pwm_on(unsigned char)+0x1e>
      48:	73 c1       	rjmp	.+742    	; 0x330 <set_pwm_on(unsigned char)+0x1a>
      4a:	72 c1       	rjmp	.+740    	; 0x330 <set_pwm_on(unsigned char)+0x1a>
      4c:	6e c1       	rjmp	.+732    	; 0x32a <set_pwm_on(unsigned char)+0x14>
      4e:	6f c1       	rjmp	.+734    	; 0x32e <set_pwm_on(unsigned char)+0x18>
      50:	6e c1       	rjmp	.+732    	; 0x32e <set_pwm_on(unsigned char)+0x18>
      52:	6b c1       	rjmp	.+726    	; 0x32a <set_pwm_on(unsigned char)+0x14>
      54:	6d c1       	rjmp	.+730    	; 0x330 <set_pwm_on(unsigned char)+0x1a>
      56:	6c c1       	rjmp	.+728    	; 0x330 <set_pwm_on(unsigned char)+0x1a>
      58:	6d c1       	rjmp	.+730    	; 0x334 <set_pwm_on(unsigned char)+0x1e>
      5a:	6c c1       	rjmp	.+728    	; 0x334 <set_pwm_on(unsigned char)+0x1e>
      5c:	66 c1       	rjmp	.+716    	; 0x32a <set_pwm_on(unsigned char)+0x14>
      5e:	74 c1       	rjmp	.+744    	; 0x348 <set_pwm_off_comp_on(unsigned char)+0x10>
      60:	77 c1       	rjmp	.+750    	; 0x350 <set_pwm_off_comp_on(unsigned char)+0x18>
      62:	76 c1       	rjmp	.+748    	; 0x350 <set_pwm_off_comp_on(unsigned char)+0x18>
      64:	73 c1       	rjmp	.+742    	; 0x34c <set_pwm_off_comp_on(unsigned char)+0x14>
      66:	72 c1       	rjmp	.+740    	; 0x34c <set_pwm_off_comp_on(unsigned char)+0x14>
      68:	6f c1       	rjmp	.+734    	; 0x348 <set_pwm_off_comp_on(unsigned char)+0x10>
      6a:	6f c1       	rjmp	.+734    	; 0x34a <set_pwm_off_comp_on(unsigned char)+0x12>
      6c:	6e c1       	rjmp	.+732    	; 0x34a <set_pwm_off_comp_on(unsigned char)+0x12>
      6e:	6c c1       	rjmp	.+728    	; 0x348 <set_pwm_off_comp_on(unsigned char)+0x10>
      70:	6d c1       	rjmp	.+730    	; 0x34c <set_pwm_off_comp_on(unsigned char)+0x14>
      72:	6c c1       	rjmp	.+728    	; 0x34c <set_pwm_off_comp_on(unsigned char)+0x14>
      74:	6d c1       	rjmp	.+730    	; 0x350 <set_pwm_off_comp_on(unsigned char)+0x18>
      76:	6c c1       	rjmp	.+728    	; 0x350 <set_pwm_off_comp_on(unsigned char)+0x18>
      78:	67 c1       	rjmp	.+718    	; 0x348 <set_pwm_off_comp_on(unsigned char)+0x10>
      7a:	86 c1       	rjmp	.+780    	; 0x388 <change_comm_state(unsigned char)+0x28>
      7c:	8b c1       	rjmp	.+790    	; 0x394 <change_comm_state(unsigned char)+0x34>
      7e:	91 c1       	rjmp	.+802    	; 0x3a2 <change_comm_state(unsigned char)+0x42>
      80:	96 c1       	rjmp	.+812    	; 0x3ae <change_comm_state(unsigned char)+0x4e>
      82:	9c c1       	rjmp	.+824    	; 0x3bc <change_comm_state(unsigned char)+0x5c>
      84:	a0 c1       	rjmp	.+832    	; 0x3c6 <change_comm_state(unsigned char)+0x66>
      86:	7f c1       	rjmp	.+766    	; 0x386 <change_comm_state(unsigned char)+0x26>
      88:	7e c1       	rjmp	.+764    	; 0x386 <change_comm_state(unsigned char)+0x26>
      8a:	a4 c1       	rjmp	.+840    	; 0x3d4 <change_comm_state(unsigned char)+0x74>
      8c:	a9 c1       	rjmp	.+850    	; 0x3e0 <change_comm_state(unsigned char)+0x80>
      8e:	b0 c1       	rjmp	.+864    	; 0x3f0 <change_comm_state(unsigned char)+0x90>
      90:	b5 c1       	rjmp	.+874    	; 0x3fc <change_comm_state(unsigned char)+0x9c>
      92:	bd c1       	rjmp	.+890    	; 0x40e <change_comm_state(unsigned char)+0xae>
      94:	70 c1       	rjmp	.+736    	; 0x376 <change_comm_state(unsigned char)+0x16>
      96:	d9 c1       	rjmp	.+946    	; 0x44a <set_ac_state(unsigned char)+0x1e>
      98:	d6 c1       	rjmp	.+940    	; 0x446 <set_ac_state(unsigned char)+0x1a>
      9a:	d2 c1       	rjmp	.+932    	; 0x440 <set_ac_state(unsigned char)+0x14>
      9c:	d6 c1       	rjmp	.+940    	; 0x44a <set_ac_state(unsigned char)+0x1e>
      9e:	d3 c1       	rjmp	.+934    	; 0x446 <set_ac_state(unsigned char)+0x1a>
      a0:	cf c1       	rjmp	.+926    	; 0x440 <set_ac_state(unsigned char)+0x14>
      a2:	d0 c1       	rjmp	.+928    	; 0x444 <set_ac_state(unsigned char)+0x18>
      a4:	cf c1       	rjmp	.+926    	; 0x444 <set_ac_state(unsigned char)+0x18>
      a6:	cc c1       	rjmp	.+920    	; 0x440 <set_ac_state(unsigned char)+0x14>
      a8:	ce c1       	rjmp	.+924    	; 0x446 <set_ac_state(unsigned char)+0x1a>
      aa:	cf c1       	rjmp	.+926    	; 0x44a <set_ac_state(unsigned char)+0x1e>
      ac:	c9 c1       	rjmp	.+914    	; 0x440 <set_ac_state(unsigned char)+0x14>
      ae:	cb c1       	rjmp	.+918    	; 0x446 <set_ac_state(unsigned char)+0x1a>
      b0:	cc c1       	rjmp	.+920    	; 0x44a <set_ac_state(unsigned char)+0x1e>
      b2:	0a c6       	rjmp	.+3092   	; 0xcc8 <loop+0x466>
      b4:	12 c5       	rjmp	.+2596   	; 0xada <loop+0x278>
      b6:	12 c5       	rjmp	.+2596   	; 0xadc <loop+0x27a>
      b8:	31 c5       	rjmp	.+2658   	; 0xb1c <loop+0x2ba>
      ba:	b4 c5       	rjmp	.+2920   	; 0xc24 <loop+0x3c2>
      bc:	10 c6       	rjmp	.+3104   	; 0xcde <loop+0x47c>
      be:	54 c5       	rjmp	.+2728   	; 0xb68 <loop+0x306>
      c0:	54 c5       	rjmp	.+2728   	; 0xb6a <loop+0x308>
      c2:	04 c6       	rjmp	.+3080   	; 0xccc <loop+0x46a>

000000c4 <zc_filter_table>:
      c4:	00 02 04 06 08 0a 0c 0e 10 12 14 16 18 1a 1c 1e     ................
      d4:	20 22 24 26 28 2a 2c 2e 30 32 34 36 38 3a 3c 3e      "$&(*,.02468:<>
      e4:	00 02 04 06 08 0a 0c 0e 10 12 01 16 01 1a 1c 1e     ................
      f4:	20 22 24 26 01 2a 2c 2e 01 01 01 36 38 3a 3c 3e      "$&.*,....68:<>

00000104 <__ctors_end>:
     104:	11 24       	eor	r1, r1
     106:	1f be       	out	0x3f, r1	; 63
     108:	cf e5       	ldi	r28, 0x5F	; 95
     10a:	d4 e0       	ldi	r29, 0x04	; 4
     10c:	de bf       	out	0x3e, r29	; 62
     10e:	cd bf       	out	0x3d, r28	; 61

00000110 <__do_copy_data>:
     110:	10 e0       	ldi	r17, 0x00	; 0
     112:	a0 e6       	ldi	r26, 0x60	; 96
     114:	b0 e0       	ldi	r27, 0x00	; 0
     116:	e6 ef       	ldi	r30, 0xF6	; 246
     118:	f1 e1       	ldi	r31, 0x11	; 17
     11a:	02 c0       	rjmp	.+4      	; 0x120 <.do_copy_data_start>

0000011c <.do_copy_data_loop>:
     11c:	05 90       	lpm	r0, Z+
     11e:	0d 92       	st	X+, r0

00000120 <.do_copy_data_start>:
     120:	aa 36       	cpi	r26, 0x6A	; 106
     122:	b1 07       	cpc	r27, r17
     124:	d9 f7       	brne	.-10     	; 0x11c <.do_copy_data_loop>

00000126 <__do_clear_bss>:
     126:	10 e0       	ldi	r17, 0x00	; 0
     128:	aa e6       	ldi	r26, 0x6A	; 106
     12a:	b0 e0       	ldi	r27, 0x00	; 0
     12c:	01 c0       	rjmp	.+2      	; 0x130 <.do_clear_bss_start>

0000012e <.do_clear_bss_loop>:
     12e:	1d 92       	st	X+, r1

00000130 <.do_clear_bss_start>:
     130:	ab 3c       	cpi	r26, 0xCB	; 203
     132:	b1 07       	cpc	r27, r17
     134:	e1 f7       	brne	.-8      	; 0x12e <.do_clear_bss_loop>
     136:	92 d7       	rcall	.+3876   	; 0x105c <main>
     138:	5c c8       	rjmp	.-3912   	; 0xfffff1f2 <__eeprom_end+0xff7ef1f2>

0000013a <__bad_interrupt>:
     13a:	62 cf       	rjmp	.-316    	; 0x0 <__vectors>

0000013c <timer_expired(timer_big*, unsigned int)>:
     13c:	fc 01       	movw	r30, r24
     13e:	80 85       	ldd	r24, Z+8	; 0x08
     140:	91 85       	ldd	r25, Z+9	; 0x09
     142:	9b 01       	movw	r18, r22
     144:	28 1b       	sub	r18, r24
     146:	39 0b       	sbc	r19, r25
     148:	c9 01       	movw	r24, r18
     14a:	71 87       	std	Z+9, r23	; 0x09
     14c:	60 87       	std	Z+8, r22	; 0x08
     14e:	20 81       	ld	r18, Z
     150:	31 81       	ldd	r19, Z+1	; 0x01
     152:	42 81       	ldd	r20, Z+2	; 0x02
     154:	53 81       	ldd	r21, Z+3	; 0x03
     156:	a0 e0       	ldi	r26, 0x00	; 0
     158:	b0 e0       	ldi	r27, 0x00	; 0
     15a:	82 17       	cp	r24, r18
     15c:	93 07       	cpc	r25, r19
     15e:	a4 07       	cpc	r26, r20
     160:	b5 07       	cpc	r27, r21
     162:	50 f4       	brcc	.+20     	; 0x178 <timer_expired(timer_big*, unsigned int)+0x3c>
     164:	28 1b       	sub	r18, r24
     166:	39 0b       	sbc	r19, r25
     168:	4a 0b       	sbc	r20, r26
     16a:	5b 0b       	sbc	r21, r27
     16c:	20 83       	st	Z, r18
     16e:	31 83       	std	Z+1, r19	; 0x01
     170:	42 83       	std	Z+2, r20	; 0x02
     172:	53 83       	std	Z+3, r21	; 0x03
     174:	80 e0       	ldi	r24, 0x00	; 0
     176:	08 95       	ret
     178:	84 81       	ldd	r24, Z+4	; 0x04
     17a:	95 81       	ldd	r25, Z+5	; 0x05
     17c:	a6 81       	ldd	r26, Z+6	; 0x06
     17e:	b7 81       	ldd	r27, Z+7	; 0x07
     180:	80 83       	st	Z, r24
     182:	91 83       	std	Z+1, r25	; 0x01
     184:	a2 83       	std	Z+2, r26	; 0x02
     186:	b3 83       	std	Z+3, r27	; 0x03
     188:	81 e0       	ldi	r24, 0x01	; 1
     18a:	08 95       	ret

0000018c <__delay_us(unsigned int)>:
     18c:	ac 01       	movw	r20, r24
     18e:	44 0f       	add	r20, r20
     190:	55 1f       	adc	r21, r21
     192:	44 50       	subi	r20, 0x04	; 4
     194:	50 40       	sbci	r21, 0x00	; 0
     196:	8f b7       	in	r24, 0x3f	; 63
     198:	f8 94       	cli
     19a:	6c b5       	in	r22, 0x2c	; 44
     19c:	7d b5       	in	r23, 0x2d	; 45
     19e:	8f bf       	out	0x3f, r24	; 63
     1a0:	2f b7       	in	r18, 0x3f	; 63
     1a2:	f8 94       	cli
     1a4:	8c b5       	in	r24, 0x2c	; 44
     1a6:	9d b5       	in	r25, 0x2d	; 45
     1a8:	2f bf       	out	0x3f, r18	; 63
     1aa:	86 1b       	sub	r24, r22
     1ac:	97 0b       	sbc	r25, r23
     1ae:	84 17       	cp	r24, r20
     1b0:	95 07       	cpc	r25, r21
     1b2:	b0 f3       	brcs	.-20     	; 0x1a0 <__delay_us(unsigned int)+0x14>
     1b4:	08 95       	ret

000001b6 <__delay_ms(unsigned int)>:
     1b6:	cf 93       	push	r28
     1b8:	df 93       	push	r29
     1ba:	ec 01       	movw	r28, r24
     1bc:	00 97       	sbiw	r24, 0x00	; 0
     1be:	29 f0       	breq	.+10     	; 0x1ca <__delay_ms(unsigned int)+0x14>
     1c0:	88 ee       	ldi	r24, 0xE8	; 232
     1c2:	93 e0       	ldi	r25, 0x03	; 3
     1c4:	e3 df       	rcall	.-58     	; 0x18c <__delay_us(unsigned int)>
     1c6:	21 97       	sbiw	r28, 0x01	; 1
     1c8:	d9 f7       	brne	.-10     	; 0x1c0 <__delay_ms(unsigned int)+0xa>
     1ca:	df 91       	pop	r29
     1cc:	cf 91       	pop	r28
     1ce:	08 95       	ret

000001d0 <__vector_1>:
     1d0:	1f 92       	push	r1
     1d2:	0f 92       	push	r0
     1d4:	0f b6       	in	r0, 0x3f	; 63
     1d6:	0f 92       	push	r0
     1d8:	11 24       	eor	r1, r1
     1da:	2f 93       	push	r18
     1dc:	3f 93       	push	r19
     1de:	8f 93       	push	r24
     1e0:	9f 93       	push	r25
     1e2:	2c b5       	in	r18, 0x2c	; 44
     1e4:	3d b5       	in	r19, 0x2d	; 45
     1e6:	82 99       	sbic	0x10, 2	; 16
     1e8:	16 c0       	rjmp	.+44     	; 0x216 <__vector_1+0x46>
     1ea:	80 91 92 00 	lds	r24, 0x0092
     1ee:	90 91 93 00 	lds	r25, 0x0093
     1f2:	28 1b       	sub	r18, r24
     1f4:	39 0b       	sbc	r19, r25
     1f6:	30 93 91 00 	sts	0x0091, r19
     1fa:	20 93 90 00 	sts	0x0090, r18
     1fe:	8c e4       	ldi	r24, 0x4C	; 76
     200:	80 93 7b 00 	sts	0x007B, r24
     204:	9f 91       	pop	r25
     206:	8f 91       	pop	r24
     208:	3f 91       	pop	r19
     20a:	2f 91       	pop	r18
     20c:	0f 90       	pop	r0
     20e:	0f be       	out	0x3f, r0	; 63
     210:	0f 90       	pop	r0
     212:	1f 90       	pop	r1
     214:	18 95       	reti
     216:	30 93 93 00 	sts	0x0093, r19
     21a:	20 93 92 00 	sts	0x0092, r18
     21e:	f2 cf       	rjmp	.-28     	; 0x204 <__vector_1+0x34>

00000220 <filter_ppm_data()>:
     220:	80 91 7b 00 	lds	r24, 0x007B
     224:	88 23       	and	r24, r24
     226:	09 f4       	brne	.+2      	; 0x22a <filter_ppm_data()+0xa>
     228:	44 c0       	rjmp	.+136    	; 0x2b2 <filter_ppm_data()+0x92>
     22a:	80 91 90 00 	lds	r24, 0x0090
     22e:	90 91 91 00 	lds	r25, 0x0091
     232:	20 91 90 00 	lds	r18, 0x0090
     236:	30 91 91 00 	lds	r19, 0x0091
     23a:	28 17       	cp	r18, r24
     23c:	39 07       	cpc	r19, r25
     23e:	59 f0       	breq	.+22     	; 0x256 <filter_ppm_data()+0x36>
     240:	20 91 90 00 	lds	r18, 0x0090
     244:	30 91 91 00 	lds	r19, 0x0091
     248:	80 91 90 00 	lds	r24, 0x0090
     24c:	90 91 91 00 	lds	r25, 0x0091
     250:	28 17       	cp	r18, r24
     252:	39 07       	cpc	r19, r25
     254:	a9 f7       	brne	.-22     	; 0x240 <filter_ppm_data()+0x20>
     256:	80 91 7c 00 	lds	r24, 0x007C
     25a:	90 91 7d 00 	lds	r25, 0x007D
     25e:	28 17       	cp	r18, r24
     260:	39 07       	cpc	r19, r25
     262:	40 f5       	brcc	.+80     	; 0x2b4 <filter_ppm_data()+0x94>
     264:	80 91 be 00 	lds	r24, 0x00BE
     268:	90 91 bf 00 	lds	r25, 0x00BF
     26c:	88 0f       	add	r24, r24
     26e:	99 1f       	adc	r25, r25
     270:	90 93 c6 00 	sts	0x00C6, r25
     274:	80 93 c5 00 	sts	0x00C5, r24
     278:	40 91 bc 00 	lds	r20, 0x00BC
     27c:	50 91 bd 00 	lds	r21, 0x00BD
     280:	44 0f       	add	r20, r20
     282:	55 1f       	adc	r21, r21
     284:	50 93 c8 00 	sts	0x00C8, r21
     288:	40 93 c7 00 	sts	0x00C7, r20
     28c:	28 17       	cp	r18, r24
     28e:	39 07       	cpc	r19, r25
     290:	80 f0       	brcs	.+32     	; 0x2b2 <filter_ppm_data()+0x92>
     292:	42 17       	cp	r20, r18
     294:	53 07       	cpc	r21, r19
     296:	68 f0       	brcs	.+26     	; 0x2b2 <filter_ppm_data()+0x92>
     298:	22 0f       	add	r18, r18
     29a:	33 1f       	adc	r19, r19
     29c:	22 0f       	add	r18, r18
     29e:	33 1f       	adc	r19, r19
     2a0:	22 0f       	add	r18, r18
     2a2:	33 1f       	adc	r19, r19
     2a4:	30 93 7a 00 	sts	0x007A, r19
     2a8:	20 93 79 00 	sts	0x0079, r18
     2ac:	81 e0       	ldi	r24, 0x01	; 1
     2ae:	80 93 bb 00 	sts	0x00BB, r24
     2b2:	08 95       	ret
     2b4:	80 91 7e 00 	lds	r24, 0x007E
     2b8:	90 91 7f 00 	lds	r25, 0x007F
     2bc:	82 17       	cp	r24, r18
     2be:	93 07       	cpc	r25, r19
     2c0:	88 f2       	brcs	.-94     	; 0x264 <filter_ppm_data()+0x44>
     2c2:	30 93 7a 00 	sts	0x007A, r19
     2c6:	20 93 79 00 	sts	0x0079, r18
     2ca:	10 92 bb 00 	sts	0x00BB, r1
     2ce:	08 95       	ret

000002d0 <rx_get_frame()>:
     2d0:	10 92 7b 00 	sts	0x007B, r1
     2d4:	10 92 7a 00 	sts	0x007A, r1
     2d8:	10 92 79 00 	sts	0x0079, r1
     2dc:	a1 df       	rcall	.-190    	; 0x220 <filter_ppm_data()>
     2de:	80 91 79 00 	lds	r24, 0x0079
     2e2:	90 91 7a 00 	lds	r25, 0x007A
     2e6:	00 97       	sbiw	r24, 0x00	; 0
     2e8:	c9 f3       	breq	.-14     	; 0x2dc <rx_get_frame()+0xc>
     2ea:	08 95       	ret

000002ec <free_spin()>:
     2ec:	95 98       	cbi	0x12, 5	; 18
     2ee:	ac 98       	cbi	0x15, 4	; 21
     2f0:	c0 98       	cbi	0x18, 0	; 24
     2f2:	94 9a       	sbi	0x12, 4	; 18
     2f4:	ad 9a       	sbi	0x15, 5	; 21
     2f6:	ab 9a       	sbi	0x15, 3	; 21
     2f8:	08 95       	ret

000002fa <set_pwm_on_comp_on(unsigned char)>:
     2fa:	e8 2f       	mov	r30, r24
     2fc:	f0 e0       	ldi	r31, 0x00	; 0
     2fe:	ee 30       	cpi	r30, 0x0E	; 14
     300:	f1 05       	cpc	r31, r1
     302:	20 f4       	brcc	.+8      	; 0x30c <set_pwm_on_comp_on(unsigned char)+0x12>
     304:	ed 5e       	subi	r30, 0xED	; 237
     306:	ff 4f       	sbci	r31, 0xFF	; 255
     308:	09 94       	ijmp
     30a:	c0 9a       	sbi	0x18, 0	; 24
     30c:	08 95       	ret
     30e:	95 9a       	sbi	0x12, 5	; 18
     310:	08 95       	ret
     312:	ac 9a       	sbi	0x15, 4	; 21
     314:	08 95       	ret

00000316 <set_pwm_on(unsigned char)>:
     316:	03 fd       	sbrc	r16, 3
     318:	88 60       	ori	r24, 0x08	; 8
     31a:	e8 2f       	mov	r30, r24
     31c:	f0 e0       	ldi	r31, 0x00	; 0
     31e:	ee 30       	cpi	r30, 0x0E	; 14
     320:	f1 05       	cpc	r31, r1
     322:	28 f4       	brcc	.+10     	; 0x32e <set_pwm_on(unsigned char)+0x18>
     324:	ef 5d       	subi	r30, 0xDF	; 223
     326:	ff 4f       	sbci	r31, 0xFF	; 255
     328:	09 94       	ijmp
     32a:	ab 9a       	sbi	0x15, 3	; 21
     32c:	e6 cf       	rjmp	.-52     	; 0x2fa <set_pwm_on_comp_on(unsigned char)>
     32e:	08 95       	ret
     330:	94 9a       	sbi	0x12, 4	; 18
     332:	e3 cf       	rjmp	.-58     	; 0x2fa <set_pwm_on_comp_on(unsigned char)>
     334:	ad 9a       	sbi	0x15, 5	; 21
     336:	e1 cf       	rjmp	.-62     	; 0x2fa <set_pwm_on_comp_on(unsigned char)>

00000338 <set_pwm_off_comp_on(unsigned char)>:
     338:	e8 2f       	mov	r30, r24
     33a:	f0 e0       	ldi	r31, 0x00	; 0
     33c:	ee 30       	cpi	r30, 0x0E	; 14
     33e:	f1 05       	cpc	r31, r1
     340:	20 f4       	brcc	.+8      	; 0x34a <set_pwm_off_comp_on(unsigned char)+0x12>
     342:	e1 5d       	subi	r30, 0xD1	; 209
     344:	ff 4f       	sbci	r31, 0xFF	; 255
     346:	09 94       	ijmp
     348:	ab 98       	cbi	0x15, 3	; 21
     34a:	08 95       	ret
     34c:	94 98       	cbi	0x12, 4	; 18
     34e:	08 95       	ret
     350:	ad 98       	cbi	0x15, 5	; 21
     352:	08 95       	ret

00000354 <set_pwm_off(unsigned char)>:
     354:	95 98       	cbi	0x12, 5	; 18
     356:	ac 98       	cbi	0x15, 4	; 21
     358:	c0 98       	cbi	0x18, 0	; 24
     35a:	03 fd       	sbrc	r16, 3
     35c:	88 60       	ori	r24, 0x08	; 8
     35e:	ec cf       	rjmp	.-40     	; 0x338 <set_pwm_off_comp_on(unsigned char)>

00000360 <change_comm_state(unsigned char)>:
     360:	90 2f       	mov	r25, r16
     362:	03 fd       	sbrc	r16, 3
     364:	88 60       	ori	r24, 0x08	; 8
     366:	e8 2f       	mov	r30, r24
     368:	f0 e0       	ldi	r31, 0x00	; 0
     36a:	ee 30       	cpi	r30, 0x0E	; 14
     36c:	f1 05       	cpc	r31, r1
     36e:	58 f4       	brcc	.+22     	; 0x386 <change_comm_state(unsigned char)+0x26>
     370:	e3 5c       	subi	r30, 0xC3	; 195
     372:	ff 4f       	sbci	r31, 0xFF	; 255
     374:	09 94       	ijmp
     376:	ad 9a       	sbi	0x15, 5	; 21
     378:	ac 98       	cbi	0x15, 4	; 21
     37a:	95 98       	cbi	0x12, 5	; 18
     37c:	94 fd       	sbrc	r25, 4
     37e:	54 c0       	rjmp	.+168    	; 0x428 <change_comm_state(unsigned char)+0xc8>
     380:	ab 98       	cbi	0x15, 3	; 21
     382:	87 e0       	ldi	r24, 0x07	; 7
     384:	87 b9       	out	0x07, r24	; 7
     386:	08 95       	ret
     388:	ad 9a       	sbi	0x15, 5	; 21
     38a:	ab 9a       	sbi	0x15, 3	; 21
     38c:	94 98       	cbi	0x12, 4	; 18
     38e:	87 e0       	ldi	r24, 0x07	; 7
     390:	87 b9       	out	0x07, r24	; 7
     392:	08 95       	ret
     394:	ab 9a       	sbi	0x15, 3	; 21
     396:	c0 98       	cbi	0x18, 0	; 24
     398:	95 98       	cbi	0x12, 5	; 18
     39a:	94 ff       	sbrs	r25, 4
     39c:	43 c0       	rjmp	.+134    	; 0x424 <change_comm_state(unsigned char)+0xc4>
     39e:	ac 9a       	sbi	0x15, 4	; 21
     3a0:	25 c0       	rjmp	.+74     	; 0x3ec <change_comm_state(unsigned char)+0x8c>
     3a2:	ad 9a       	sbi	0x15, 5	; 21
     3a4:	94 9a       	sbi	0x12, 4	; 18
     3a6:	ab 98       	cbi	0x15, 3	; 21
     3a8:	86 e0       	ldi	r24, 0x06	; 6
     3aa:	87 b9       	out	0x07, r24	; 7
     3ac:	08 95       	ret
     3ae:	ad 9a       	sbi	0x15, 5	; 21
     3b0:	ac 98       	cbi	0x15, 4	; 21
     3b2:	95 98       	cbi	0x12, 5	; 18
     3b4:	94 ff       	sbrs	r25, 4
     3b6:	34 c0       	rjmp	.+104    	; 0x420 <change_comm_state(unsigned char)+0xc0>
     3b8:	95 9a       	sbi	0x12, 5	; 18
     3ba:	1d c0       	rjmp	.+58     	; 0x3f6 <change_comm_state(unsigned char)+0x96>
     3bc:	ab 9a       	sbi	0x15, 3	; 21
     3be:	94 9a       	sbi	0x12, 4	; 18
     3c0:	ad 98       	cbi	0x15, 5	; 21
     3c2:	17 b8       	out	0x07, r1	; 7
     3c4:	08 95       	ret
     3c6:	94 9a       	sbi	0x12, 4	; 18
     3c8:	95 98       	cbi	0x12, 5	; 18
     3ca:	ac 98       	cbi	0x15, 4	; 21
     3cc:	94 ff       	sbrs	r25, 4
     3ce:	26 c0       	rjmp	.+76     	; 0x41c <change_comm_state(unsigned char)+0xbc>
     3d0:	c0 9a       	sbi	0x18, 0	; 24
     3d2:	1a c0       	rjmp	.+52     	; 0x408 <change_comm_state(unsigned char)+0xa8>
     3d4:	94 9a       	sbi	0x12, 4	; 18
     3d6:	ab 9a       	sbi	0x15, 3	; 21
     3d8:	ad 98       	cbi	0x15, 5	; 21
     3da:	86 e0       	ldi	r24, 0x06	; 6
     3dc:	87 b9       	out	0x07, r24	; 7
     3de:	08 95       	ret
     3e0:	ab 9a       	sbi	0x15, 3	; 21
     3e2:	c0 98       	cbi	0x18, 0	; 24
     3e4:	ac 98       	cbi	0x15, 4	; 21
     3e6:	94 fd       	sbrc	r25, 4
     3e8:	17 c0       	rjmp	.+46     	; 0x418 <change_comm_state(unsigned char)+0xb8>
     3ea:	94 98       	cbi	0x12, 4	; 18
     3ec:	17 b8       	out	0x07, r1	; 7
     3ee:	08 95       	ret
     3f0:	94 9a       	sbi	0x12, 4	; 18
     3f2:	ad 9a       	sbi	0x15, 5	; 21
     3f4:	ab 98       	cbi	0x15, 3	; 21
     3f6:	87 e0       	ldi	r24, 0x07	; 7
     3f8:	87 b9       	out	0x07, r24	; 7
     3fa:	08 95       	ret
     3fc:	94 9a       	sbi	0x12, 4	; 18
     3fe:	95 98       	cbi	0x12, 5	; 18
     400:	ac 98       	cbi	0x15, 4	; 21
     402:	94 fd       	sbrc	r25, 4
     404:	07 c0       	rjmp	.+14     	; 0x414 <change_comm_state(unsigned char)+0xb4>
     406:	ad 98       	cbi	0x15, 5	; 21
     408:	86 e0       	ldi	r24, 0x06	; 6
     40a:	87 b9       	out	0x07, r24	; 7
     40c:	08 95       	ret
     40e:	ab 9a       	sbi	0x15, 3	; 21
     410:	ad 9a       	sbi	0x15, 5	; 21
     412:	eb cf       	rjmp	.-42     	; 0x3ea <change_comm_state(unsigned char)+0x8a>
     414:	ac 9a       	sbi	0x15, 4	; 21
     416:	f8 cf       	rjmp	.-16     	; 0x408 <change_comm_state(unsigned char)+0xa8>
     418:	95 9a       	sbi	0x12, 5	; 18
     41a:	e8 cf       	rjmp	.-48     	; 0x3ec <change_comm_state(unsigned char)+0x8c>
     41c:	ab 98       	cbi	0x15, 3	; 21
     41e:	f4 cf       	rjmp	.-24     	; 0x408 <change_comm_state(unsigned char)+0xa8>
     420:	94 98       	cbi	0x12, 4	; 18
     422:	e9 cf       	rjmp	.-46     	; 0x3f6 <change_comm_state(unsigned char)+0x96>
     424:	ad 98       	cbi	0x15, 5	; 21
     426:	e2 cf       	rjmp	.-60     	; 0x3ec <change_comm_state(unsigned char)+0x8c>
     428:	c0 9a       	sbi	0x18, 0	; 24
     42a:	ab cf       	rjmp	.-170    	; 0x382 <change_comm_state(unsigned char)+0x22>

0000042c <set_ac_state(unsigned char)>:
     42c:	03 fd       	sbrc	r16, 3
     42e:	88 60       	ori	r24, 0x08	; 8
     430:	e8 2f       	mov	r30, r24
     432:	f0 e0       	ldi	r31, 0x00	; 0
     434:	ee 30       	cpi	r30, 0x0E	; 14
     436:	f1 05       	cpc	r31, r1
     438:	28 f4       	brcc	.+10     	; 0x444 <set_ac_state(unsigned char)+0x18>
     43a:	e5 5b       	subi	r30, 0xB5	; 181
     43c:	ff 4f       	sbci	r31, 0xFF	; 255
     43e:	09 94       	ijmp
     440:	86 e0       	ldi	r24, 0x06	; 6
     442:	87 b9       	out	0x07, r24	; 7
     444:	08 95       	ret
     446:	17 b8       	out	0x07, r1	; 7
     448:	08 95       	ret
     44a:	87 e0       	ldi	r24, 0x07	; 7
     44c:	87 b9       	out	0x07, r24	; 7
     44e:	08 95       	ret

00000450 <set_comm_state()>:
     450:	80 2f       	mov	r24, r16
     452:	87 70       	andi	r24, 0x07	; 7
     454:	81 50       	subi	r24, 0x01	; 1
     456:	84 df       	rcall	.-248    	; 0x360 <change_comm_state(unsigned char)>
     458:	80 2f       	mov	r24, r16
     45a:	87 70       	andi	r24, 0x07	; 7
     45c:	81 cf       	rjmp	.-254    	; 0x360 <change_comm_state(unsigned char)>

0000045e <pct_to_val(unsigned char)>:
     45e:	90 e0       	ldi	r25, 0x00	; 0
     460:	a0 e0       	ldi	r26, 0x00	; 0
     462:	b0 e0       	ldi	r27, 0x00	; 0
     464:	20 91 88 00 	lds	r18, 0x0088
     468:	30 91 89 00 	lds	r19, 0x0089
     46c:	44 27       	eor	r20, r20
     46e:	37 fd       	sbrc	r19, 7
     470:	40 95       	com	r20
     472:	54 2f       	mov	r21, r20
     474:	bc 01       	movw	r22, r24
     476:	cd 01       	movw	r24, r26
     478:	f8 d5       	rcall	.+3056   	; 0x106a <__mulsi3>
     47a:	24 e6       	ldi	r18, 0x64	; 100
     47c:	30 e0       	ldi	r19, 0x00	; 0
     47e:	40 e0       	ldi	r20, 0x00	; 0
     480:	50 e0       	ldi	r21, 0x00	; 0
     482:	39 d6       	rcall	.+3186   	; 0x10f6 <__udivmodsi4>
     484:	da 01       	movw	r26, r20
     486:	c9 01       	movw	r24, r18
     488:	08 95       	ret

0000048a <sdm()>:
     48a:	92 01       	movw	r18, r4
     48c:	40 2f       	mov	r20, r16
     48e:	40 71       	andi	r20, 0x10	; 16
     490:	04 ff       	sbrs	r16, 4
     492:	06 c0       	rjmp	.+12     	; 0x4a0 <sdm()+0x16>
     494:	80 91 88 00 	lds	r24, 0x0088
     498:	90 91 89 00 	lds	r25, 0x0089
     49c:	28 1b       	sub	r18, r24
     49e:	39 0b       	sbc	r19, r25
     4a0:	80 91 84 00 	lds	r24, 0x0084
     4a4:	90 91 85 00 	lds	r25, 0x0085
     4a8:	82 1b       	sub	r24, r18
     4aa:	93 0b       	sbc	r25, r19
     4ac:	90 93 85 00 	sts	0x0085, r25
     4b0:	80 93 84 00 	sts	0x0084, r24
     4b4:	97 fd       	sbrc	r25, 7
     4b6:	08 c0       	rjmp	.+16     	; 0x4c8 <sdm()+0x3e>
     4b8:	44 23       	and	r20, r20
     4ba:	09 f4       	brne	.+2      	; 0x4be <sdm()+0x34>
     4bc:	08 95       	ret
     4be:	80 2f       	mov	r24, r16
     4c0:	8f 7e       	andi	r24, 0xEF	; 239
     4c2:	08 2f       	mov	r16, r24
     4c4:	87 70       	andi	r24, 0x07	; 7
     4c6:	46 cf       	rjmp	.-372    	; 0x354 <set_pwm_off(unsigned char)>
     4c8:	44 23       	and	r20, r20
     4ca:	c1 f7       	brne	.-16     	; 0x4bc <sdm()+0x32>
     4cc:	80 2f       	mov	r24, r16
     4ce:	80 61       	ori	r24, 0x10	; 16
     4d0:	08 2f       	mov	r16, r24
     4d2:	87 70       	andi	r24, 0x07	; 7
     4d4:	20 cf       	rjmp	.-448    	; 0x316 <set_pwm_on(unsigned char)>

000004d6 <zc_start_detected()>:
     4d6:	80 2f       	mov	r24, r16
     4d8:	87 70       	andi	r24, 0x07	; 7
     4da:	80 ff       	sbrs	r24, 0
     4dc:	0d c0       	rjmp	.+26     	; 0x4f8 <zc_start_detected()+0x22>
     4de:	05 fd       	sbrc	r16, 5
     4e0:	0d c0       	rjmp	.+26     	; 0x4fc <zc_start_detected()+0x26>
     4e2:	23 94       	inc	r2
     4e4:	82 e1       	ldi	r24, 0x12	; 18
     4e6:	82 15       	cp	r24, r2
     4e8:	10 f4       	brcc	.+4      	; 0x4ee <zc_start_detected()+0x18>
     4ea:	a2 e1       	ldi	r26, 0x12	; 18
     4ec:	2a 2e       	mov	r2, r26
     4ee:	80 e0       	ldi	r24, 0x00	; 0
     4f0:	22 20       	and	r2, r2
     4f2:	09 f4       	brne	.+2      	; 0x4f6 <zc_start_detected()+0x20>
     4f4:	81 e0       	ldi	r24, 0x01	; 1
     4f6:	08 95       	ret
     4f8:	05 fd       	sbrc	r16, 5
     4fa:	f3 cf       	rjmp	.-26     	; 0x4e2 <zc_start_detected()+0xc>
     4fc:	2a 94       	dec	r2
     4fe:	f2 cf       	rjmp	.-28     	; 0x4e4 <zc_start_detected()+0xe>

00000500 <zc_run_detected_lh()>:
     500:	e2 2d       	mov	r30, r2
     502:	05 ff       	sbrs	r16, 5
     504:	e1 60       	ori	r30, 0x01	; 1
     506:	f0 e0       	ldi	r31, 0x00	; 0
     508:	ec 53       	subi	r30, 0x3C	; 60
     50a:	ff 4f       	sbci	r31, 0xFF	; 255
     50c:	e4 91       	lpm	r30, Z+
     50e:	2e 2e       	mov	r2, r30
     510:	8e 2f       	mov	r24, r30
     512:	81 70       	andi	r24, 0x01	; 1
     514:	08 95       	ret

00000516 <zc_run_detected_hl()>:
     516:	e2 2d       	mov	r30, r2
     518:	05 fd       	sbrc	r16, 5
     51a:	e1 60       	ori	r30, 0x01	; 1
     51c:	f0 e0       	ldi	r31, 0x00	; 0
     51e:	ec 53       	subi	r30, 0x3C	; 60
     520:	ff 4f       	sbci	r31, 0xFF	; 255
     522:	e4 91       	lpm	r30, Z+
     524:	2e 2e       	mov	r2, r30
     526:	8e 2f       	mov	r24, r30
     528:	81 70       	andi	r24, 0x01	; 1
     52a:	08 95       	ret

0000052c <run_power_control()>:
     52c:	79 de       	rcall	.-782    	; 0x220 <filter_ppm_data()>
     52e:	40 91 79 00 	lds	r20, 0x0079
     532:	50 91 7a 00 	lds	r21, 0x007A
     536:	80 91 86 00 	lds	r24, 0x0086
     53a:	90 91 87 00 	lds	r25, 0x0087
     53e:	48 1b       	sub	r20, r24
     540:	59 0b       	sbc	r21, r25
     542:	80 91 8a 00 	lds	r24, 0x008A
     546:	90 91 8b 00 	lds	r25, 0x008B
     54a:	48 17       	cp	r20, r24
     54c:	59 07       	cpc	r21, r25
     54e:	14 f4       	brge	.+4      	; 0x554 <run_power_control()+0x28>
     550:	40 e0       	ldi	r20, 0x00	; 0
     552:	50 e0       	ldi	r21, 0x00	; 0
     554:	20 91 88 00 	lds	r18, 0x0088
     558:	30 91 89 00 	lds	r19, 0x0089
     55c:	80 91 c1 00 	lds	r24, 0x00C1
     560:	90 91 c2 00 	lds	r25, 0x00C2
     564:	82 17       	cp	r24, r18
     566:	93 07       	cpc	r25, r19
     568:	2c f4       	brge	.+10     	; 0x574 <run_power_control()+0x48>
     56a:	05 96       	adiw	r24, 0x05	; 5
     56c:	90 93 c2 00 	sts	0x00C2, r25
     570:	80 93 c1 00 	sts	0x00C1, r24
     574:	28 17       	cp	r18, r24
     576:	39 07       	cpc	r19, r25
     578:	0c f4       	brge	.+2      	; 0x57c <run_power_control()+0x50>
     57a:	c9 01       	movw	r24, r18
     57c:	48 17       	cp	r20, r24
     57e:	59 07       	cpc	r21, r25
     580:	0c f4       	brge	.+2      	; 0x584 <run_power_control()+0x58>
     582:	ca 01       	movw	r24, r20
     584:	2c 01       	movw	r4, r24
     586:	08 95       	ret

00000588 <run_timing_control(unsigned int)>:
     588:	90 93 ba 00 	sts	0x00BA, r25
     58c:	80 93 b9 00 	sts	0x00B9, r24
     590:	90 93 b2 00 	sts	0x00B2, r25
     594:	80 93 b1 00 	sts	0x00B1, r24
     598:	80 91 a4 00 	lds	r24, 0x00A4
     59c:	90 91 a5 00 	lds	r25, 0x00A5
     5a0:	90 93 ae 00 	sts	0x00AE, r25
     5a4:	80 93 ad 00 	sts	0x00AD, r24
     5a8:	9c 01       	movw	r18, r24
     5aa:	36 95       	lsr	r19
     5ac:	27 95       	ror	r18
     5ae:	36 95       	lsr	r19
     5b0:	27 95       	ror	r18
     5b2:	36 95       	lsr	r19
     5b4:	27 95       	ror	r18
     5b6:	30 93 b6 00 	sts	0x00B6, r19
     5ba:	20 93 b5 00 	sts	0x00B5, r18
     5be:	c9 01       	movw	r24, r18
     5c0:	96 95       	lsr	r25
     5c2:	87 95       	ror	r24
     5c4:	90 93 a8 00 	sts	0x00A8, r25
     5c8:	80 93 a7 00 	sts	0x00A7, r24
     5cc:	ac 01       	movw	r20, r24
     5ce:	56 95       	lsr	r21
     5d0:	47 95       	ror	r20
     5d2:	56 95       	lsr	r21
     5d4:	47 95       	ror	r20
     5d6:	80 91 c0 00 	lds	r24, 0x00C0
     5da:	82 30       	cpi	r24, 0x02	; 2
     5dc:	59 f0       	breq	.+22     	; 0x5f4 <run_timing_control(unsigned int)+0x6c>
     5de:	83 30       	cpi	r24, 0x03	; 3
     5e0:	19 f0       	breq	.+6      	; 0x5e8 <run_timing_control(unsigned int)+0x60>
     5e2:	81 30       	cpi	r24, 0x01	; 1
     5e4:	89 f0       	breq	.+34     	; 0x608 <run_timing_control(unsigned int)+0x80>
     5e6:	08 95       	ret
     5e8:	24 1b       	sub	r18, r20
     5ea:	35 0b       	sbc	r19, r21
     5ec:	30 93 b6 00 	sts	0x00B6, r19
     5f0:	20 93 b5 00 	sts	0x00B5, r18
     5f4:	80 91 b5 00 	lds	r24, 0x00B5
     5f8:	90 91 b6 00 	lds	r25, 0x00B6
     5fc:	84 1b       	sub	r24, r20
     5fe:	95 0b       	sbc	r25, r21
     600:	90 93 b6 00 	sts	0x00B6, r25
     604:	80 93 b5 00 	sts	0x00B5, r24
     608:	80 91 b5 00 	lds	r24, 0x00B5
     60c:	90 91 b6 00 	lds	r25, 0x00B6
     610:	84 1b       	sub	r24, r20
     612:	95 0b       	sbc	r25, r21
     614:	90 93 b6 00 	sts	0x00B6, r25
     618:	80 93 b5 00 	sts	0x00B5, r24
     61c:	08 95       	ret

0000061e <run_init()>:
     61e:	8f ef       	ldi	r24, 0xFF	; 255
     620:	80 93 a6 00 	sts	0x00A6, r24
     624:	0f 7b       	andi	r16, 0xBF	; 191
     626:	50 92 c2 00 	sts	0x00C2, r5
     62a:	40 92 c1 00 	sts	0x00C1, r4
     62e:	80 91 b3 00 	lds	r24, 0x00B3
     632:	90 91 b4 00 	lds	r25, 0x00B4
     636:	a8 cf       	rjmp	.-176    	; 0x588 <run_timing_control(unsigned int)>

00000638 <setup_to_rt()>:
     638:	90 2f       	mov	r25, r16
     63a:	9f 77       	andi	r25, 0x7F	; 127
     63c:	09 2f       	mov	r16, r25
     63e:	80 91 75 00 	lds	r24, 0x0075
     642:	81 11       	cpse	r24, r1
     644:	00 68       	ori	r16, 0x80	; 128
     646:	80 91 76 00 	lds	r24, 0x0076
     64a:	80 93 c0 00 	sts	0x00C0, r24
     64e:	80 91 6a 00 	lds	r24, 0x006A
     652:	90 91 6b 00 	lds	r25, 0x006B
     656:	88 0f       	add	r24, r24
     658:	99 1f       	adc	r25, r25
     65a:	90 93 7d 00 	sts	0x007D, r25
     65e:	80 93 7c 00 	sts	0x007C, r24
     662:	80 91 6c 00 	lds	r24, 0x006C
     666:	90 91 6d 00 	lds	r25, 0x006D
     66a:	88 0f       	add	r24, r24
     66c:	99 1f       	adc	r25, r25
     66e:	90 93 7f 00 	sts	0x007F, r25
     672:	80 93 7e 00 	sts	0x007E, r24
     676:	e0 91 6e 00 	lds	r30, 0x006E
     67a:	f0 91 6f 00 	lds	r31, 0x006F
     67e:	ee 0f       	add	r30, r30
     680:	ff 1f       	adc	r31, r31
     682:	f0 93 81 00 	sts	0x0081, r31
     686:	e0 93 80 00 	sts	0x0080, r30
     68a:	80 91 72 00 	lds	r24, 0x0072
     68e:	90 91 73 00 	lds	r25, 0x0073
     692:	88 0f       	add	r24, r24
     694:	99 1f       	adc	r25, r25
     696:	90 93 83 00 	sts	0x0083, r25
     69a:	80 93 82 00 	sts	0x0082, r24
     69e:	20 91 70 00 	lds	r18, 0x0070
     6a2:	30 91 71 00 	lds	r19, 0x0071
     6a6:	22 0f       	add	r18, r18
     6a8:	33 1f       	adc	r19, r19
     6aa:	2e 1b       	sub	r18, r30
     6ac:	3f 0b       	sbc	r19, r31
     6ae:	c9 01       	movw	r24, r18
     6b0:	88 0f       	add	r24, r24
     6b2:	99 1f       	adc	r25, r25
     6b4:	88 0f       	add	r24, r24
     6b6:	99 1f       	adc	r25, r25
     6b8:	88 0f       	add	r24, r24
     6ba:	99 1f       	adc	r25, r25
     6bc:	64 e6       	ldi	r22, 0x64	; 100
     6be:	70 e0       	ldi	r23, 0x00	; 0
     6c0:	f3 d4       	rcall	.+2534   	; 0x10a8 <__udivmodhi4>
     6c2:	26 0f       	add	r18, r22
     6c4:	37 1f       	adc	r19, r23
     6c6:	30 93 89 00 	sts	0x0089, r19
     6ca:	20 93 88 00 	sts	0x0088, r18
     6ce:	e6 1b       	sub	r30, r22
     6d0:	f7 0b       	sbc	r31, r23
     6d2:	f0 93 87 00 	sts	0x0087, r31
     6d6:	e0 93 86 00 	sts	0x0086, r30
     6da:	70 93 8b 00 	sts	0x008B, r23
     6de:	60 93 8a 00 	sts	0x008A, r22
     6e2:	88 e0       	ldi	r24, 0x08	; 8
     6e4:	bc de       	rcall	.-648    	; 0x45e <pct_to_val(unsigned char)>
     6e6:	90 93 8d 00 	sts	0x008D, r25
     6ea:	80 93 8c 00 	sts	0x008C, r24
     6ee:	89 e1       	ldi	r24, 0x19	; 25
     6f0:	b6 de       	rcall	.-660    	; 0x45e <pct_to_val(unsigned char)>
     6f2:	90 93 8f 00 	sts	0x008F, r25
     6f6:	80 93 8e 00 	sts	0x008E, r24
     6fa:	90 2f       	mov	r25, r16
     6fc:	97 7f       	andi	r25, 0xF7	; 247
     6fe:	09 2f       	mov	r16, r25
     700:	80 91 78 00 	lds	r24, 0x0078
     704:	81 11       	cpse	r24, r1
     706:	08 60       	ori	r16, 0x08	; 8
     708:	08 95       	ret

0000070a <beep(unsigned char, unsigned char)>:
     70a:	cf 92       	push	r12
     70c:	df 92       	push	r13
     70e:	ef 92       	push	r14
     710:	ff 92       	push	r15
     712:	cf 93       	push	r28
     714:	df 93       	push	r29
     716:	26 2f       	mov	r18, r22
     718:	e8 2f       	mov	r30, r24
     71a:	f0 e0       	ldi	r31, 0x00	; 0
     71c:	80 e1       	ldi	r24, 0x10	; 16
     71e:	97 e2       	ldi	r25, 0x27	; 39
     720:	bf 01       	movw	r22, r30
     722:	d6 d4       	rcall	.+2476   	; 0x10d0 <__divmodhi4>
     724:	6b 01       	movw	r12, r22
     726:	30 e0       	ldi	r19, 0x00	; 0
     728:	2e 9f       	mul	r18, r30
     72a:	70 01       	movw	r14, r0
     72c:	2f 9f       	mul	r18, r31
     72e:	f0 0c       	add	r15, r0
     730:	3e 9f       	mul	r19, r30
     732:	f0 0c       	add	r15, r0
     734:	11 24       	eor	r1, r1
     736:	e1 14       	cp	r14, r1
     738:	f1 04       	cpc	r15, r1
     73a:	89 f0       	breq	.+34     	; 0x75e <beep(unsigned char, unsigned char)+0x54>
     73c:	c0 e0       	ldi	r28, 0x00	; 0
     73e:	d0 e0       	ldi	r29, 0x00	; 0
     740:	80 2f       	mov	r24, r16
     742:	87 70       	andi	r24, 0x07	; 7
     744:	e8 dd       	rcall	.-1072   	; 0x316 <set_pwm_on(unsigned char)>
     746:	86 e0       	ldi	r24, 0x06	; 6
     748:	90 e0       	ldi	r25, 0x00	; 0
     74a:	20 dd       	rcall	.-1472   	; 0x18c <__delay_us(unsigned int)>
     74c:	80 2f       	mov	r24, r16
     74e:	87 70       	andi	r24, 0x07	; 7
     750:	01 de       	rcall	.-1022   	; 0x354 <set_pwm_off(unsigned char)>
     752:	c6 01       	movw	r24, r12
     754:	1b dd       	rcall	.-1482   	; 0x18c <__delay_us(unsigned int)>
     756:	21 96       	adiw	r28, 0x01	; 1
     758:	ce 15       	cp	r28, r14
     75a:	df 05       	cpc	r29, r15
     75c:	88 f3       	brcs	.-30     	; 0x740 <beep(unsigned char, unsigned char)+0x36>
     75e:	df 91       	pop	r29
     760:	cf 91       	pop	r28
     762:	ff 90       	pop	r15
     764:	ef 90       	pop	r14
     766:	df 90       	pop	r13
     768:	cf 90       	pop	r12
     76a:	08 95       	ret

0000076c <startup_sound()>:
     76c:	1f 93       	push	r17
     76e:	08 7f       	andi	r16, 0xF8	; 248
     770:	6f de       	rcall	.-802    	; 0x450 <set_comm_state()>
     772:	10 e0       	ldi	r17, 0x00	; 0
     774:	91 2f       	mov	r25, r17
     776:	97 70       	andi	r25, 0x07	; 7
     778:	80 2f       	mov	r24, r16
     77a:	88 7f       	andi	r24, 0xF8	; 248
     77c:	08 2f       	mov	r16, r24
     77e:	09 2b       	or	r16, r25
     780:	81 2f       	mov	r24, r17
     782:	ee dd       	rcall	.-1060   	; 0x360 <change_comm_state(unsigned char)>
     784:	81 2f       	mov	r24, r17
     786:	8a 5f       	subi	r24, 0xFA	; 250
     788:	6a e0       	ldi	r22, 0x0A	; 10
     78a:	bf df       	rcall	.-130    	; 0x70a <beep(unsigned char, unsigned char)>
     78c:	85 e0       	ldi	r24, 0x05	; 5
     78e:	90 e0       	ldi	r25, 0x00	; 0
     790:	12 dd       	rcall	.-1500   	; 0x1b6 <__delay_ms(unsigned int)>
     792:	1f 5f       	subi	r17, 0xFF	; 255
     794:	15 30       	cpi	r17, 0x05	; 5
     796:	71 f7       	brne	.-36     	; 0x774 <startup_sound()+0x8>
     798:	1f 91       	pop	r17
     79a:	08 95       	ret

0000079c <wait_for(unsigned int, unsigned int, unsigned char)>:
     79c:	cf 92       	push	r12
     79e:	df 92       	push	r13
     7a0:	ff 92       	push	r15
     7a2:	1f 93       	push	r17
     7a4:	cf 93       	push	r28
     7a6:	df 93       	push	r29
     7a8:	ec 01       	movw	r28, r24
     7aa:	6b 01       	movw	r12, r22
     7ac:	f4 2e       	mov	r15, r20
     7ae:	14 2f       	mov	r17, r20
     7b0:	8f dd       	rcall	.-1250   	; 0x2d0 <rx_get_frame()>
     7b2:	21 2f       	mov	r18, r17
     7b4:	1f 2d       	mov	r17, r15
     7b6:	8c 17       	cp	r24, r28
     7b8:	9d 07       	cpc	r25, r29
     7ba:	d0 f3       	brcs	.-12     	; 0x7b0 <wait_for(unsigned int, unsigned int, unsigned char)+0x14>
     7bc:	c8 16       	cp	r12, r24
     7be:	d9 06       	cpc	r13, r25
     7c0:	b8 f3       	brcs	.-18     	; 0x7b0 <wait_for(unsigned int, unsigned int, unsigned char)+0x14>
     7c2:	12 2f       	mov	r17, r18
     7c4:	11 50       	subi	r17, 0x01	; 1
     7c6:	a1 f7       	brne	.-24     	; 0x7b0 <wait_for(unsigned int, unsigned int, unsigned char)+0x14>
     7c8:	df 91       	pop	r29
     7ca:	cf 91       	pop	r28
     7cc:	1f 91       	pop	r17
     7ce:	ff 90       	pop	r15
     7d0:	df 90       	pop	r13
     7d2:	cf 90       	pop	r12
     7d4:	08 95       	ret

000007d6 <get_stable_ppm_value()>:
     7d6:	ef 92       	push	r14
     7d8:	ff 92       	push	r15
     7da:	1f 93       	push	r17
     7dc:	cf 93       	push	r28
     7de:	df 93       	push	r29
     7e0:	77 dd       	rcall	.-1298   	; 0x2d0 <rx_get_frame()>
     7e2:	7c 01       	movw	r14, r24
     7e4:	ec 01       	movw	r28, r24
     7e6:	10 e0       	ldi	r17, 0x00	; 0
     7e8:	03 c0       	rjmp	.+6      	; 0x7f0 <get_stable_ppm_value()+0x1a>
     7ea:	1f 5f       	subi	r17, 0xFF	; 255
     7ec:	12 33       	cpi	r17, 0x32	; 50
     7ee:	a9 f0       	breq	.+42     	; 0x81a <get_stable_ppm_value()+0x44>
     7f0:	6f dd       	rcall	.-1314   	; 0x2d0 <rx_get_frame()>
     7f2:	c8 17       	cp	r28, r24
     7f4:	d9 07       	cpc	r29, r25
     7f6:	08 f4       	brcc	.+2      	; 0x7fa <get_stable_ppm_value()+0x24>
     7f8:	ec 01       	movw	r28, r24
     7fa:	8e 15       	cp	r24, r14
     7fc:	9f 05       	cpc	r25, r15
     7fe:	08 f4       	brcc	.+2      	; 0x802 <get_stable_ppm_value()+0x2c>
     800:	7c 01       	movw	r14, r24
     802:	ce 01       	movw	r24, r28
     804:	8e 19       	sub	r24, r14
     806:	9f 09       	sbc	r25, r15
     808:	09 97       	sbiw	r24, 0x09	; 9
     80a:	78 f3       	brcs	.-34     	; 0x7ea <get_stable_ppm_value()+0x14>
     80c:	80 e0       	ldi	r24, 0x00	; 0
     80e:	90 e0       	ldi	r25, 0x00	; 0
     810:	cd b7       	in	r28, 0x3d	; 61
     812:	de b7       	in	r29, 0x3e	; 62
     814:	e5 e0       	ldi	r30, 0x05	; 5
     816:	ba c4       	rjmp	.+2420   	; 0x118c <__epilogue_restores__+0x1a>
     818:	09 c0       	rjmp	.+18     	; 0x82c <wait_for_arm()>
     81a:	ce 01       	movw	r24, r28
     81c:	8e 0d       	add	r24, r14
     81e:	9f 1d       	adc	r25, r15
     820:	96 95       	lsr	r25
     822:	87 95       	ror	r24
     824:	cd b7       	in	r28, 0x3d	; 61
     826:	de b7       	in	r29, 0x3e	; 62
     828:	e5 e0       	ldi	r30, 0x05	; 5
     82a:	b0 c4       	rjmp	.+2400   	; 0x118c <__epilogue_restores__+0x1a>

0000082c <wait_for_arm()>:
     82c:	60 91 80 00 	lds	r22, 0x0080
     830:	70 91 81 00 	lds	r23, 0x0081
     834:	80 91 7c 00 	lds	r24, 0x007C
     838:	90 91 7d 00 	lds	r25, 0x007D
     83c:	42 e3       	ldi	r20, 0x32	; 50
     83e:	ae cf       	rjmp	.-164    	; 0x79c <wait_for(unsigned int, unsigned int, unsigned char)>

00000840 <wait_for_power_on()>:
     840:	80 91 74 00 	lds	r24, 0x0074
     844:	90 e0       	ldi	r25, 0x00	; 0
     846:	88 0f       	add	r24, r24
     848:	99 1f       	adc	r25, r25
     84a:	20 91 80 00 	lds	r18, 0x0080
     84e:	30 91 81 00 	lds	r19, 0x0081
     852:	60 91 7e 00 	lds	r22, 0x007E
     856:	70 91 7f 00 	lds	r23, 0x007F
     85a:	82 0f       	add	r24, r18
     85c:	93 1f       	adc	r25, r19
     85e:	4f e0       	ldi	r20, 0x0F	; 15
     860:	9d cf       	rjmp	.-198    	; 0x79c <wait_for(unsigned int, unsigned int, unsigned char)>

00000862 <loop>:
     862:	a0 e0       	ldi	r26, 0x00	; 0
     864:	b0 e0       	ldi	r27, 0x00	; 0
     866:	e6 e3       	ldi	r30, 0x36	; 54
     868:	f4 e0       	ldi	r31, 0x04	; 4
     86a:	6c c4       	rjmp	.+2264   	; 0x1144 <__prologue_saves__+0xa>
     86c:	df df       	rcall	.-66     	; 0x82c <wait_for_arm()>
     86e:	f0 dd       	rcall	.-1056   	; 0x450 <set_comm_state()>
     870:	8c e0       	ldi	r24, 0x0C	; 12
     872:	62 e3       	ldi	r22, 0x32	; 50
     874:	4a df       	rcall	.-364    	; 0x70a <beep(unsigned char, unsigned char)>
     876:	88 e0       	ldi	r24, 0x08	; 8
     878:	68 2e       	mov	r6, r24
     87a:	88 ef       	ldi	r24, 0xF8	; 248
     87c:	78 2e       	mov	r7, r24
     87e:	81 e0       	ldi	r24, 0x01	; 1
     880:	88 2e       	mov	r8, r24
     882:	91 2c       	mov	r9, r1
     884:	10 ea       	ldi	r17, 0xA0	; 160
     886:	c1 2e       	mov	r12, r17
     888:	16 e8       	ldi	r17, 0x86	; 134
     88a:	d1 2e       	mov	r13, r17
     88c:	11 e0       	ldi	r17, 0x01	; 1
     88e:	e1 2e       	mov	r14, r17
     890:	f1 2c       	mov	r15, r1
     892:	aa 24       	eor	r10, r10
     894:	a3 94       	inc	r10
     896:	2a dd       	rcall	.-1452   	; 0x2ec <free_spin()>
     898:	10 92 85 00 	sts	0x0085, r1
     89c:	10 92 84 00 	sts	0x0084, r1
     8a0:	44 24       	eor	r4, r4
     8a2:	55 24       	eor	r5, r5
     8a4:	80 2f       	mov	r24, r16
     8a6:	8f 7e       	andi	r24, 0xEF	; 239
     8a8:	08 2f       	mov	r16, r24
     8aa:	87 ff       	sbrs	r24, 7
     8ac:	03 c0       	rjmp	.+6      	; 0x8b4 <loop+0x52>
     8ae:	95 9a       	sbi	0x12, 5	; 18
     8b0:	ac 9a       	sbi	0x15, 4	; 21
     8b2:	c0 9a       	sbi	0x18, 0	; 24
     8b4:	c5 df       	rcall	.-118    	; 0x840 <wait_for_power_on()>
     8b6:	1a dd       	rcall	.-1484   	; 0x2ec <free_spin()>
     8b8:	40 90 8c 00 	lds	r4, 0x008C
     8bc:	50 90 8d 00 	lds	r5, 0x008D
     8c0:	60 92 9e 00 	sts	0x009E, r6
     8c4:	70 92 9f 00 	sts	0x009F, r7
     8c8:	80 92 a0 00 	sts	0x00A0, r8
     8cc:	90 92 a1 00 	sts	0x00A1, r9
     8d0:	cf ef       	ldi	r28, 0xFF	; 255
     8d2:	df e3       	ldi	r29, 0x3F	; 63
     8d4:	10 e0       	ldi	r17, 0x00	; 0
     8d6:	80 91 9e 00 	lds	r24, 0x009E
     8da:	90 91 9f 00 	lds	r25, 0x009F
     8de:	a0 91 a0 00 	lds	r26, 0x00A0
     8e2:	b0 91 a1 00 	lds	r27, 0x00A1
     8e6:	80 93 9a 00 	sts	0x009A, r24
     8ea:	90 93 9b 00 	sts	0x009B, r25
     8ee:	a0 93 9c 00 	sts	0x009C, r26
     8f2:	b0 93 9d 00 	sts	0x009D, r27
     8f6:	b2 e1       	ldi	r27, 0x12	; 18
     8f8:	2b 2e       	mov	r2, r27
     8fa:	16 c0       	rjmp	.+44     	; 0x928 <loop+0xc6>
     8fc:	0f 7d       	andi	r16, 0xDF	; 223
     8fe:	c5 dd       	rcall	.-1142   	; 0x48a <sdm()>
     900:	8f b7       	in	r24, 0x3f	; 63
     902:	f8 94       	cli
     904:	6c b5       	in	r22, 0x2c	; 44
     906:	7d b5       	in	r23, 0x2d	; 45
     908:	8f bf       	out	0x3f, r24	; 63
     90a:	8a e9       	ldi	r24, 0x9A	; 154
     90c:	90 e0       	ldi	r25, 0x00	; 0
     90e:	16 dc       	rcall	.-2004   	; 0x13c <timer_expired(timer_big*, unsigned int)>
     910:	88 23       	and	r24, r24
     912:	09 f0       	breq	.+2      	; 0x916 <loop+0xb4>
     914:	92 c0       	rjmp	.+292    	; 0xa3a <loop+0x1d8>
     916:	df dd       	rcall	.-1090   	; 0x4d6 <zc_start_detected()>
     918:	88 23       	and	r24, r24
     91a:	71 f4       	brne	.+28     	; 0x938 <loop+0xd6>
     91c:	45 9b       	sbis	0x08, 5	; 8
     91e:	08 c0       	rjmp	.+16     	; 0x930 <loop+0xce>
     920:	0f 7d       	andi	r16, 0xDF	; 223
     922:	d9 dd       	rcall	.-1102   	; 0x4d6 <zc_start_detected()>
     924:	88 23       	and	r24, r24
     926:	41 f4       	brne	.+16     	; 0x938 <loop+0xd6>
     928:	45 99       	sbic	0x08, 5	; 8
     92a:	e8 cf       	rjmp	.-48     	; 0x8fc <loop+0x9a>
     92c:	00 62       	ori	r16, 0x20	; 32
     92e:	e7 cf       	rjmp	.-50     	; 0x8fe <loop+0x9c>
     930:	00 62       	ori	r16, 0x20	; 32
     932:	d1 dd       	rcall	.-1118   	; 0x4d6 <zc_start_detected()>
     934:	88 23       	and	r24, r24
     936:	c1 f3       	breq	.-16     	; 0x928 <loop+0xc6>
     938:	8f b7       	in	r24, 0x3f	; 63
     93a:	f8 94       	cli
     93c:	2c b5       	in	r18, 0x2c	; 44
     93e:	3d b5       	in	r19, 0x2d	; 45
     940:	8f bf       	out	0x3f, r24	; 63
     942:	80 91 b3 00 	lds	r24, 0x00B3
     946:	90 91 b4 00 	lds	r25, 0x00B4
     94a:	a9 01       	movw	r20, r18
     94c:	48 1b       	sub	r20, r24
     94e:	59 0b       	sbc	r21, r25
     950:	30 93 b4 00 	sts	0x00B4, r19
     954:	20 93 b3 00 	sts	0x00B3, r18
     958:	80 91 c3 00 	lds	r24, 0x00C3
     95c:	90 91 c4 00 	lds	r25, 0x00C4
     960:	84 0f       	add	r24, r20
     962:	95 1f       	adc	r25, r21
     964:	90 93 a5 00 	sts	0x00A5, r25
     968:	80 93 a4 00 	sts	0x00A4, r24
     96c:	50 93 c4 00 	sts	0x00C4, r21
     970:	40 93 c3 00 	sts	0x00C3, r20
     974:	8c 1b       	sub	r24, r28
     976:	9d 0b       	sbc	r25, r29
     978:	95 95       	asr	r25
     97a:	87 95       	ror	r24
     97c:	95 95       	asr	r25
     97e:	87 95       	ror	r24
     980:	c8 0f       	add	r28, r24
     982:	d9 1f       	adc	r29, r25
     984:	1f 5f       	subi	r17, 0xFF	; 255
     986:	18 37       	cpi	r17, 0x78	; 120
     988:	30 f0       	brcs	.+12     	; 0x996 <loop+0x134>
     98a:	2b e1       	ldi	r18, 0x1B	; 27
     98c:	c5 3e       	cpi	r28, 0xE5	; 229
     98e:	d2 07       	cpc	r29, r18
     990:	0c f4       	brge	.+2      	; 0x994 <loop+0x132>
     992:	70 c0       	rjmp	.+224    	; 0xa74 <loop+0x212>
     994:	18 e7       	ldi	r17, 0x78	; 120
     996:	90 2f       	mov	r25, r16
     998:	97 70       	andi	r25, 0x07	; 7
     99a:	89 2f       	mov	r24, r25
     99c:	8f 5f       	subi	r24, 0xFF	; 255
     99e:	86 30       	cpi	r24, 0x06	; 6
     9a0:	08 f0       	brcs	.+2      	; 0x9a4 <loop+0x142>
     9a2:	86 50       	subi	r24, 0x06	; 6
     9a4:	87 70       	andi	r24, 0x07	; 7
     9a6:	90 2f       	mov	r25, r16
     9a8:	98 7f       	andi	r25, 0xF8	; 248
     9aa:	09 2f       	mov	r16, r25
     9ac:	08 2b       	or	r16, r24
     9ae:	d2 dc       	rcall	.-1628   	; 0x354 <set_pwm_off(unsigned char)>
     9b0:	80 2f       	mov	r24, r16
     9b2:	8f 7e       	andi	r24, 0xEF	; 239
     9b4:	08 2f       	mov	r16, r24
     9b6:	87 70       	andi	r24, 0x07	; 7
     9b8:	d3 dc       	rcall	.-1626   	; 0x360 <change_comm_state(unsigned char)>
     9ba:	80 2f       	mov	r24, r16
     9bc:	87 70       	andi	r24, 0x07	; 7
     9be:	41 f1       	breq	.+80     	; 0xa10 <loop+0x1ae>
     9c0:	80 91 9e 00 	lds	r24, 0x009E
     9c4:	90 91 9f 00 	lds	r25, 0x009F
     9c8:	a0 91 a0 00 	lds	r26, 0x00A0
     9cc:	b0 91 a1 00 	lds	r27, 0x00A1
     9d0:	88 97       	sbiw	r24, 0x28	; 40
     9d2:	a1 09       	sbc	r26, r1
     9d4:	b1 09       	sbc	r27, r1
     9d6:	80 93 9e 00 	sts	0x009E, r24
     9da:	90 93 9f 00 	sts	0x009F, r25
     9de:	a0 93 a0 00 	sts	0x00A0, r26
     9e2:	b0 93 a1 00 	sts	0x00A1, r27
     9e6:	80 5a       	subi	r24, 0xA0	; 160
     9e8:	96 48       	sbci	r25, 0x86	; 134
     9ea:	a1 40       	sbci	r26, 0x01	; 1
     9ec:	b0 40       	sbci	r27, 0x00	; 0
     9ee:	40 f4       	brcc	.+16     	; 0xa00 <loop+0x19e>
     9f0:	c0 92 9e 00 	sts	0x009E, r12
     9f4:	d0 92 9f 00 	sts	0x009F, r13
     9f8:	e0 92 a0 00 	sts	0x00A0, r14
     9fc:	f0 92 a1 00 	sts	0x00A1, r15
     a00:	41 14       	cp	r4, r1
     a02:	51 04       	cpc	r5, r1
     a04:	09 f4       	brne	.+2      	; 0xa08 <loop+0x1a6>
     a06:	47 cf       	rjmp	.-370    	; 0x896 <loop+0x34>
     a08:	8c e2       	ldi	r24, 0x2C	; 44
     a0a:	91 e0       	ldi	r25, 0x01	; 1
     a0c:	bf db       	rcall	.-2178   	; 0x18c <__delay_us(unsigned int)>
     a0e:	63 cf       	rjmp	.-314    	; 0x8d6 <loop+0x74>
     a10:	07 dc       	rcall	.-2034   	; 0x220 <filter_ppm_data()>
     a12:	40 91 79 00 	lds	r20, 0x0079
     a16:	50 91 7a 00 	lds	r21, 0x007A
     a1a:	80 91 86 00 	lds	r24, 0x0086
     a1e:	90 91 87 00 	lds	r25, 0x0087
     a22:	48 1b       	sub	r20, r24
     a24:	59 0b       	sbc	r21, r25
     a26:	80 91 8a 00 	lds	r24, 0x008A
     a2a:	90 91 8b 00 	lds	r25, 0x008B
     a2e:	48 17       	cp	r20, r24
     a30:	59 07       	cpc	r21, r25
     a32:	2c f4       	brge	.+10     	; 0xa3e <loop+0x1dc>
     a34:	44 24       	eor	r4, r4
     a36:	55 24       	eor	r5, r5
     a38:	c3 cf       	rjmp	.-122    	; 0x9c0 <loop+0x15e>
     a3a:	10 e0       	ldi	r17, 0x00	; 0
     a3c:	ac cf       	rjmp	.-168    	; 0x996 <loop+0x134>
     a3e:	20 91 8c 00 	lds	r18, 0x008C
     a42:	30 91 8d 00 	lds	r19, 0x008D
     a46:	42 17       	cp	r20, r18
     a48:	53 07       	cpc	r21, r19
     a4a:	4c f0       	brlt	.+18     	; 0xa5e <loop+0x1fc>
     a4c:	80 91 8e 00 	lds	r24, 0x008E
     a50:	90 91 8f 00 	lds	r25, 0x008F
     a54:	9a 01       	movw	r18, r20
     a56:	84 17       	cp	r24, r20
     a58:	95 07       	cpc	r25, r21
     a5a:	0c f4       	brge	.+2      	; 0xa5e <loop+0x1fc>
     a5c:	9c 01       	movw	r18, r24
     a5e:	c2 01       	movw	r24, r4
     a60:	24 19       	sub	r18, r4
     a62:	35 09       	sbc	r19, r5
     a64:	35 95       	asr	r19
     a66:	27 95       	ror	r18
     a68:	35 95       	asr	r19
     a6a:	27 95       	ror	r18
     a6c:	29 01       	movw	r4, r18
     a6e:	48 0e       	add	r4, r24
     a70:	59 1e       	adc	r5, r25
     a72:	a6 cf       	rjmp	.-180    	; 0x9c0 <loop+0x15e>
     a74:	90 2f       	mov	r25, r16
     a76:	97 70       	andi	r25, 0x07	; 7
     a78:	89 2f       	mov	r24, r25
     a7a:	8f 5f       	subi	r24, 0xFF	; 255
     a7c:	86 30       	cpi	r24, 0x06	; 6
     a7e:	08 f0       	brcs	.+2      	; 0xa82 <loop+0x220>
     a80:	86 50       	subi	r24, 0x06	; 6
     a82:	87 70       	andi	r24, 0x07	; 7
     a84:	90 2f       	mov	r25, r16
     a86:	98 7f       	andi	r25, 0xF8	; 248
     a88:	09 2f       	mov	r16, r25
     a8a:	08 2b       	or	r16, r24
     a8c:	69 dc       	rcall	.-1838   	; 0x360 <change_comm_state(unsigned char)>
     a8e:	c7 dd       	rcall	.-1138   	; 0x61e <run_init()>
     a90:	bb 24       	eor	r11, r11
     a92:	10 e0       	ldi	r17, 0x00	; 0
     a94:	45 9b       	sbis	0x08, 5	; 8
     a96:	63 c0       	rjmp	.+198    	; 0xb5e <loop+0x2fc>
     a98:	0f 7d       	andi	r16, 0xDF	; 223
     a9a:	b0 fc       	sbrc	r11, 0
     a9c:	63 c0       	rjmp	.+198    	; 0xb64 <loop+0x302>
     a9e:	8f b7       	in	r24, 0x3f	; 63
     aa0:	f8 94       	cli
     aa2:	cc b5       	in	r28, 0x2c	; 44
     aa4:	dd b5       	in	r29, 0x2d	; 45
     aa6:	8f bf       	out	0x3f, r24	; 63
     aa8:	e1 2f       	mov	r30, r17
     aaa:	f0 e0       	ldi	r31, 0x00	; 0
     aac:	e9 30       	cpi	r30, 0x09	; 9
     aae:	f1 05       	cpc	r31, r1
     ab0:	88 f0       	brcs	.+34     	; 0xad4 <loop+0x272>
     ab2:	1c dc       	rcall	.-1992   	; 0x2ec <free_spin()>
     ab4:	10 92 85 00 	sts	0x0085, r1
     ab8:	10 92 84 00 	sts	0x0084, r1
     abc:	44 24       	eor	r4, r4
     abe:	55 24       	eor	r5, r5
     ac0:	0f 7e       	andi	r16, 0xEF	; 239
     ac2:	80 91 a6 00 	lds	r24, 0x00A6
     ac6:	88 23       	and	r24, r24
     ac8:	09 f4       	brne	.+2      	; 0xacc <loop+0x26a>
     aca:	e5 ce       	rjmp	.-566    	; 0x896 <loop+0x34>
     acc:	cd b7       	in	r28, 0x3d	; 61
     ace:	de b7       	in	r29, 0x3e	; 62
     ad0:	ed e0       	ldi	r30, 0x0D	; 13
     ad2:	54 c3       	rjmp	.+1704   	; 0x117c <__epilogue_restores__+0xa>
     ad4:	e7 5a       	subi	r30, 0xA7	; 167
     ad6:	ff 4f       	sbci	r31, 0xFF	; 255
     ad8:	09 94       	ijmp
     ada:	12 e0       	ldi	r17, 0x02	; 2
     adc:	80 91 ab 00 	lds	r24, 0x00AB
     ae0:	90 91 ac 00 	lds	r25, 0x00AC
     ae4:	9e 01       	movw	r18, r28
     ae6:	28 1b       	sub	r18, r24
     ae8:	39 0b       	sbc	r19, r25
     aea:	d0 93 ac 00 	sts	0x00AC, r29
     aee:	c0 93 ab 00 	sts	0x00AB, r28
     af2:	80 91 a7 00 	lds	r24, 0x00A7
     af6:	90 91 a8 00 	lds	r25, 0x00A8
     afa:	28 17       	cp	r18, r24
     afc:	39 07       	cpc	r19, r25
     afe:	08 f4       	brcc	.+2      	; 0xb02 <loop+0x2a0>
     b00:	0f c1       	rjmp	.+542    	; 0xd20 <loop+0x4be>
     b02:	80 91 a9 00 	lds	r24, 0x00A9
     b06:	90 91 aa 00 	lds	r25, 0x00AA
     b0a:	90 93 a8 00 	sts	0x00A8, r25
     b0e:	80 93 a7 00 	sts	0x00A7, r24
     b12:	22 24       	eor	r2, r2
     b14:	80 2f       	mov	r24, r16
     b16:	87 70       	andi	r24, 0x07	; 7
     b18:	80 ff       	sbrs	r24, 0
     b1a:	84 c0       	rjmp	.+264    	; 0xc24 <loop+0x3c2>
     b1c:	80 91 b1 00 	lds	r24, 0x00B1
     b20:	90 91 b2 00 	lds	r25, 0x00B2
     b24:	9e 01       	movw	r18, r28
     b26:	28 1b       	sub	r18, r24
     b28:	39 0b       	sbc	r19, r25
     b2a:	d0 93 b2 00 	sts	0x00B2, r29
     b2e:	c0 93 b1 00 	sts	0x00B1, r28
     b32:	80 91 ad 00 	lds	r24, 0x00AD
     b36:	90 91 ae 00 	lds	r25, 0x00AE
     b3a:	28 17       	cp	r18, r24
     b3c:	39 07       	cpc	r19, r25
     b3e:	08 f0       	brcs	.+2      	; 0xb42 <loop+0x2e0>
     b40:	db c0       	rjmp	.+438    	; 0xcf8 <loop+0x496>
     b42:	82 1b       	sub	r24, r18
     b44:	93 0b       	sbc	r25, r19
     b46:	90 93 ae 00 	sts	0x00AE, r25
     b4a:	80 93 ad 00 	sts	0x00AD, r24
     b4e:	d8 dc       	rcall	.-1616   	; 0x500 <zc_run_detected_lh()>
     b50:	88 23       	and	r24, r24
     b52:	09 f0       	breq	.+2      	; 0xb56 <loop+0x2f4>
     b54:	ec c0       	rjmp	.+472    	; 0xd2e <loop+0x4cc>
     b56:	13 e0       	ldi	r17, 0x03	; 3
     b58:	b3 94       	inc	r11
     b5a:	45 99       	sbic	0x08, 5	; 8
     b5c:	9d cf       	rjmp	.-198    	; 0xa98 <loop+0x236>
     b5e:	00 62       	ori	r16, 0x20	; 32
     b60:	b0 fe       	sbrs	r11, 0
     b62:	9d cf       	rjmp	.-198    	; 0xa9e <loop+0x23c>
     b64:	92 dc       	rcall	.-1756   	; 0x48a <sdm()>
     b66:	9b cf       	rjmp	.-202    	; 0xa9e <loop+0x23c>
     b68:	17 e0       	ldi	r17, 0x07	; 7
     b6a:	80 91 b9 00 	lds	r24, 0x00B9
     b6e:	90 91 ba 00 	lds	r25, 0x00BA
     b72:	9e 01       	movw	r18, r28
     b74:	28 1b       	sub	r18, r24
     b76:	39 0b       	sbc	r19, r25
     b78:	d0 93 ba 00 	sts	0x00BA, r29
     b7c:	c0 93 b9 00 	sts	0x00B9, r28
     b80:	80 91 b5 00 	lds	r24, 0x00B5
     b84:	90 91 b6 00 	lds	r25, 0x00B6
     b88:	28 17       	cp	r18, r24
     b8a:	39 07       	cpc	r19, r25
     b8c:	08 f4       	brcc	.+2      	; 0xb90 <loop+0x32e>
     b8e:	c1 c0       	rjmp	.+386    	; 0xd12 <loop+0x4b0>
     b90:	80 91 b7 00 	lds	r24, 0x00B7
     b94:	90 91 b8 00 	lds	r25, 0x00B8
     b98:	90 93 b6 00 	sts	0x00B6, r25
     b9c:	80 93 b5 00 	sts	0x00B5, r24
     ba0:	80 91 a4 00 	lds	r24, 0x00A4
     ba4:	90 91 a5 00 	lds	r25, 0x00A5
     ba8:	81 51       	subi	r24, 0x11	; 17
     baa:	97 42       	sbci	r25, 0x27	; 39
     bac:	08 f0       	brcs	.+2      	; 0xbb0 <loop+0x34e>
     bae:	94 c0       	rjmp	.+296    	; 0xcd8 <loop+0x476>
     bb0:	90 2f       	mov	r25, r16
     bb2:	97 70       	andi	r25, 0x07	; 7
     bb4:	89 2f       	mov	r24, r25
     bb6:	8f 5f       	subi	r24, 0xFF	; 255
     bb8:	86 30       	cpi	r24, 0x06	; 6
     bba:	08 f0       	brcs	.+2      	; 0xbbe <loop+0x35c>
     bbc:	86 50       	subi	r24, 0x06	; 6
     bbe:	87 70       	andi	r24, 0x07	; 7
     bc0:	90 2f       	mov	r25, r16
     bc2:	98 7f       	andi	r25, 0xF8	; 248
     bc4:	09 2f       	mov	r16, r25
     bc6:	08 2b       	or	r16, r24
     bc8:	cb db       	rcall	.-2154   	; 0x360 <change_comm_state(unsigned char)>
     bca:	80 91 98 00 	lds	r24, 0x0098
     bce:	90 91 99 00 	lds	r25, 0x0099
     bd2:	9e 01       	movw	r18, r28
     bd4:	28 1b       	sub	r18, r24
     bd6:	39 0b       	sbc	r19, r25
     bd8:	d0 93 99 00 	sts	0x0099, r29
     bdc:	c0 93 98 00 	sts	0x0098, r28
     be0:	80 91 94 00 	lds	r24, 0x0094
     be4:	90 91 95 00 	lds	r25, 0x0095
     be8:	28 17       	cp	r18, r24
     bea:	39 07       	cpc	r19, r25
     bec:	08 f4       	brcc	.+2      	; 0xbf0 <loop+0x38e>
     bee:	da c0       	rjmp	.+436    	; 0xda4 <loop+0x542>
     bf0:	80 91 96 00 	lds	r24, 0x0096
     bf4:	90 91 97 00 	lds	r25, 0x0097
     bf8:	90 93 95 00 	sts	0x0095, r25
     bfc:	80 93 94 00 	sts	0x0094, r24
     c00:	80 91 7b 00 	lds	r24, 0x007B
     c04:	81 50       	subi	r24, 0x01	; 1
     c06:	80 93 7b 00 	sts	0x007B, r24
     c0a:	88 23       	and	r24, r24
     c0c:	41 f4       	brne	.+16     	; 0xc1e <loop+0x3bc>
     c0e:	10 92 7a 00 	sts	0x007A, r1
     c12:	10 92 79 00 	sts	0x0079, r1
     c16:	10 92 91 00 	sts	0x0091, r1
     c1a:	10 92 90 00 	sts	0x0090, r1
     c1e:	18 e0       	ldi	r17, 0x08	; 8
     c20:	b3 94       	inc	r11
     c22:	9b cf       	rjmp	.-202    	; 0xb5a <loop+0x2f8>
     c24:	80 91 b1 00 	lds	r24, 0x00B1
     c28:	90 91 b2 00 	lds	r25, 0x00B2
     c2c:	9e 01       	movw	r18, r28
     c2e:	28 1b       	sub	r18, r24
     c30:	39 0b       	sbc	r19, r25
     c32:	d0 93 b2 00 	sts	0x00B2, r29
     c36:	c0 93 b1 00 	sts	0x00B1, r28
     c3a:	80 91 ad 00 	lds	r24, 0x00AD
     c3e:	90 91 ae 00 	lds	r25, 0x00AE
     c42:	28 17       	cp	r18, r24
     c44:	39 07       	cpc	r19, r25
     c46:	08 f0       	brcs	.+2      	; 0xc4a <loop+0x3e8>
     c48:	57 c0       	rjmp	.+174    	; 0xcf8 <loop+0x496>
     c4a:	82 1b       	sub	r24, r18
     c4c:	93 0b       	sbc	r25, r19
     c4e:	90 93 ae 00 	sts	0x00AE, r25
     c52:	80 93 ad 00 	sts	0x00AD, r24
     c56:	5f dc       	rcall	.-1858   	; 0x516 <zc_run_detected_hl()>
     c58:	88 23       	and	r24, r24
     c5a:	09 f0       	breq	.+2      	; 0xc5e <loop+0x3fc>
     c5c:	68 c0       	rjmp	.+208    	; 0xd2e <loop+0x4cc>
     c5e:	14 e0       	ldi	r17, 0x04	; 4
     c60:	b3 94       	inc	r11
     c62:	7b cf       	rjmp	.-266    	; 0xb5a <loop+0x2f8>
     c64:	43 db       	rcall	.-2426   	; 0x2ec <free_spin()>
     c66:	10 92 85 00 	sts	0x0085, r1
     c6a:	10 92 84 00 	sts	0x0084, r1
     c6e:	44 24       	eor	r4, r4
     c70:	55 24       	eor	r5, r5
     c72:	90 2f       	mov	r25, r16
     c74:	9f 7e       	andi	r25, 0xEF	; 239
     c76:	29 2f       	mov	r18, r25
     c78:	27 70       	andi	r18, 0x07	; 7
     c7a:	82 2f       	mov	r24, r18
     c7c:	8d 5f       	subi	r24, 0xFD	; 253
     c7e:	86 30       	cpi	r24, 0x06	; 6
     c80:	08 f0       	brcs	.+2      	; 0xc84 <loop+0x422>
     c82:	86 50       	subi	r24, 0x06	; 6
     c84:	87 70       	andi	r24, 0x07	; 7
     c86:	98 7f       	andi	r25, 0xF8	; 248
     c88:	09 2f       	mov	r16, r25
     c8a:	08 2b       	or	r16, r24
     c8c:	cf db       	rcall	.-2146   	; 0x42c <set_ac_state(unsigned char)>
     c8e:	d0 93 b2 00 	sts	0x00B2, r29
     c92:	c0 93 b1 00 	sts	0x00B1, r28
     c96:	8f ef       	ldi	r24, 0xFF	; 255
     c98:	9f e7       	ldi	r25, 0x7F	; 127
     c9a:	90 93 ae 00 	sts	0x00AE, r25
     c9e:	80 93 ad 00 	sts	0x00AD, r24
     ca2:	d0 93 ac 00 	sts	0x00AC, r29
     ca6:	c0 93 ab 00 	sts	0x00AB, r28
     caa:	80 91 a4 00 	lds	r24, 0x00A4
     cae:	90 91 a5 00 	lds	r25, 0x00A5
     cb2:	96 95       	lsr	r25
     cb4:	87 95       	ror	r24
     cb6:	96 95       	lsr	r25
     cb8:	87 95       	ror	r24
     cba:	96 95       	lsr	r25
     cbc:	87 95       	ror	r24
     cbe:	90 93 a8 00 	sts	0x00A8, r25
     cc2:	80 93 a7 00 	sts	0x00A7, r24
     cc6:	00 64       	ori	r16, 0x40	; 64
     cc8:	11 e0       	ldi	r17, 0x01	; 1
     cca:	46 cf       	rjmp	.-372    	; 0xb58 <loop+0x2f6>
     ccc:	2f dc       	rcall	.-1954   	; 0x52c <run_power_control()>
     cce:	07 ff       	sbrs	r16, 7
     cd0:	0d c0       	rjmp	.+26     	; 0xcec <loop+0x48a>
     cd2:	41 14       	cp	r4, r1
     cd4:	51 04       	cpc	r5, r1
     cd6:	51 f4       	brne	.+20     	; 0xcec <loop+0x48a>
     cd8:	10 92 a6 00 	sts	0x00A6, r1
     cdc:	ea ce       	rjmp	.-556    	; 0xab2 <loop+0x250>
     cde:	80 91 b3 00 	lds	r24, 0x00B3
     ce2:	90 91 b4 00 	lds	r25, 0x00B4
     ce6:	50 dc       	rcall	.-1888   	; 0x588 <run_timing_control(unsigned int)>
     ce8:	16 e0       	ldi	r17, 0x06	; 6
     cea:	36 cf       	rjmp	.-404    	; 0xb58 <loop+0x2f6>
     cec:	d0 93 ac 00 	sts	0x00AC, r29
     cf0:	c0 93 ab 00 	sts	0x00AB, r28
     cf4:	11 e0       	ldi	r17, 0x01	; 1
     cf6:	30 cf       	rjmp	.-416    	; 0xb58 <loop+0x2f6>
     cf8:	80 91 af 00 	lds	r24, 0x00AF
     cfc:	90 91 b0 00 	lds	r25, 0x00B0
     d00:	90 93 ae 00 	sts	0x00AE, r25
     d04:	80 93 ad 00 	sts	0x00AD, r24
     d08:	06 ff       	sbrs	r16, 6
     d0a:	ac cf       	rjmp	.-168    	; 0xc64 <loop+0x402>
     d0c:	a0 92 a6 00 	sts	0x00A6, r10
     d10:	d0 ce       	rjmp	.-608    	; 0xab2 <loop+0x250>
     d12:	82 1b       	sub	r24, r18
     d14:	93 0b       	sbc	r25, r19
     d16:	90 93 b6 00 	sts	0x00B6, r25
     d1a:	80 93 b5 00 	sts	0x00B5, r24
     d1e:	1c cf       	rjmp	.-456    	; 0xb58 <loop+0x2f6>
     d20:	82 1b       	sub	r24, r18
     d22:	93 0b       	sbc	r25, r19
     d24:	90 93 a8 00 	sts	0x00A8, r25
     d28:	80 93 a7 00 	sts	0x00A7, r24
     d2c:	15 cf       	rjmp	.-470    	; 0xb58 <loop+0x2f6>
     d2e:	ae 01       	movw	r20, r28
     d30:	4a 52       	subi	r20, 0x2A	; 42
     d32:	50 40       	sbci	r21, 0x00	; 0
     d34:	06 ff       	sbrs	r16, 6
     d36:	1b c0       	rjmp	.+54     	; 0xd6e <loop+0x50c>
     d38:	80 91 b3 00 	lds	r24, 0x00B3
     d3c:	90 91 b4 00 	lds	r25, 0x00B4
     d40:	9a 01       	movw	r18, r20
     d42:	28 1b       	sub	r18, r24
     d44:	39 0b       	sbc	r19, r25
     d46:	c9 01       	movw	r24, r18
     d48:	50 93 b4 00 	sts	0x00B4, r21
     d4c:	40 93 b3 00 	sts	0x00B3, r20
     d50:	96 95       	lsr	r25
     d52:	87 95       	ror	r24
     d54:	90 93 a5 00 	sts	0x00A5, r25
     d58:	80 93 a4 00 	sts	0x00A4, r24
     d5c:	96 95       	lsr	r25
     d5e:	87 95       	ror	r24
     d60:	90 93 c4 00 	sts	0x00C4, r25
     d64:	80 93 c3 00 	sts	0x00C3, r24
     d68:	0f 7b       	andi	r16, 0xBF	; 191
     d6a:	15 e0       	ldi	r17, 0x05	; 5
     d6c:	f5 ce       	rjmp	.-534    	; 0xb58 <loop+0x2f6>
     d6e:	80 91 b3 00 	lds	r24, 0x00B3
     d72:	90 91 b4 00 	lds	r25, 0x00B4
     d76:	9a 01       	movw	r18, r20
     d78:	28 1b       	sub	r18, r24
     d7a:	39 0b       	sbc	r19, r25
     d7c:	50 93 b4 00 	sts	0x00B4, r21
     d80:	40 93 b3 00 	sts	0x00B3, r20
     d84:	80 91 c3 00 	lds	r24, 0x00C3
     d88:	90 91 c4 00 	lds	r25, 0x00C4
     d8c:	82 0f       	add	r24, r18
     d8e:	93 1f       	adc	r25, r19
     d90:	90 93 a5 00 	sts	0x00A5, r25
     d94:	80 93 a4 00 	sts	0x00A4, r24
     d98:	30 93 c4 00 	sts	0x00C4, r19
     d9c:	20 93 c3 00 	sts	0x00C3, r18
     da0:	15 e0       	ldi	r17, 0x05	; 5
     da2:	da ce       	rjmp	.-588    	; 0xb58 <loop+0x2f6>
     da4:	82 1b       	sub	r24, r18
     da6:	93 0b       	sbc	r25, r19
     da8:	90 93 95 00 	sts	0x0095, r25
     dac:	80 93 94 00 	sts	0x0094, r24
     db0:	18 e0       	ldi	r17, 0x08	; 8
     db2:	36 cf       	rjmp	.-404    	; 0xc20 <loop+0x3be>

00000db4 <read_storage()>:
     db4:	81 e0       	ldi	r24, 0x01	; 1
     db6:	07 d1       	rcall	.+526    	; 0xfc6 <nvram_open>
     db8:	60 91 63 00 	lds	r22, 0x0063
     dbc:	70 91 64 00 	lds	r23, 0x0064
     dc0:	80 91 61 00 	lds	r24, 0x0061
     dc4:	90 91 62 00 	lds	r25, 0x0062
     dc8:	04 d1       	rcall	.+520    	; 0xfd2 <nvram_read>
     dca:	60 91 67 00 	lds	r22, 0x0067
     dce:	70 91 68 00 	lds	r23, 0x0068
     dd2:	80 91 65 00 	lds	r24, 0x0065
     dd6:	90 91 66 00 	lds	r25, 0x0066
     dda:	fb d0       	rcall	.+502    	; 0xfd2 <nvram_read>
     ddc:	f9 c0       	rjmp	.+498    	; 0xfd0 <nvram_close>

00000dde <write_storage()>:
     dde:	82 e0       	ldi	r24, 0x02	; 2
     de0:	f2 d0       	rcall	.+484    	; 0xfc6 <nvram_open>
     de2:	60 91 63 00 	lds	r22, 0x0063
     de6:	70 91 64 00 	lds	r23, 0x0064
     dea:	80 91 61 00 	lds	r24, 0x0061
     dee:	90 91 62 00 	lds	r25, 0x0062
     df2:	05 d1       	rcall	.+522    	; 0xffe <nvram_write>
     df4:	60 91 67 00 	lds	r22, 0x0067
     df8:	70 91 68 00 	lds	r23, 0x0068
     dfc:	80 91 65 00 	lds	r24, 0x0065
     e00:	90 91 66 00 	lds	r25, 0x0066
     e04:	fc d0       	rcall	.+504    	; 0xffe <nvram_write>
     e06:	e4 c0       	rjmp	.+456    	; 0xfd0 <nvram_close>

00000e08 <check_for_stick_cal()>:
     e08:	80 91 77 00 	lds	r24, 0x0077
     e0c:	81 11       	cpse	r24, r1
     e0e:	08 95       	ret
     e10:	60 91 7e 00 	lds	r22, 0x007E
     e14:	70 91 7f 00 	lds	r23, 0x007F
     e18:	80 91 7c 00 	lds	r24, 0x007C
     e1c:	90 91 7d 00 	lds	r25, 0x007D
     e20:	4a e0       	ldi	r20, 0x0A	; 10
     e22:	bc dc       	rcall	.-1672   	; 0x79c <wait_for(unsigned int, unsigned int, unsigned char)>
     e24:	55 da       	rcall	.-2902   	; 0x2d0 <rx_get_frame()>
     e26:	81 58       	subi	r24, 0x81	; 129
     e28:	9c 40       	sbci	r25, 0x0C	; 12
     e2a:	88 f3       	brcs	.-30     	; 0xe0e <check_for_stick_cal()+0x6>
     e2c:	d4 dc       	rcall	.-1624   	; 0x7d6 <get_stable_ppm_value()>
     e2e:	00 97       	sbiw	r24, 0x00	; 0
     e30:	e9 f3       	breq	.-6      	; 0xe2c <check_for_stick_cal()+0x24>
     e32:	96 95       	lsr	r25
     e34:	87 95       	ror	r24
     e36:	90 93 71 00 	sts	0x0071, r25
     e3a:	80 93 70 00 	sts	0x0070, r24
     e3e:	8a e0       	ldi	r24, 0x0A	; 10
     e40:	6a e0       	ldi	r22, 0x0A	; 10
     e42:	63 dc       	rcall	.-1850   	; 0x70a <beep(unsigned char, unsigned char)>
     e44:	88 ec       	ldi	r24, 0xC8	; 200
     e46:	90 e0       	ldi	r25, 0x00	; 0
     e48:	b6 d9       	rcall	.-3220   	; 0x1b6 <__delay_ms(unsigned int)>
     e4a:	8a e0       	ldi	r24, 0x0A	; 10
     e4c:	6a e0       	ldi	r22, 0x0A	; 10
     e4e:	5d dc       	rcall	.-1862   	; 0x70a <beep(unsigned char, unsigned char)>
     e50:	80 91 7c 00 	lds	r24, 0x007C
     e54:	90 91 7d 00 	lds	r25, 0x007D
     e58:	60 e8       	ldi	r22, 0x80	; 128
     e5a:	7c e0       	ldi	r23, 0x0C	; 12
     e5c:	49 e1       	ldi	r20, 0x19	; 25
     e5e:	9e dc       	rcall	.-1732   	; 0x79c <wait_for(unsigned int, unsigned int, unsigned char)>
     e60:	ba dc       	rcall	.-1676   	; 0x7d6 <get_stable_ppm_value()>
     e62:	00 97       	sbiw	r24, 0x00	; 0
     e64:	e9 f3       	breq	.-6      	; 0xe60 <check_for_stick_cal()+0x58>
     e66:	fc 01       	movw	r30, r24
     e68:	f6 95       	lsr	r31
     e6a:	e7 95       	ror	r30
     e6c:	20 91 70 00 	lds	r18, 0x0070
     e70:	30 91 71 00 	lds	r19, 0x0071
     e74:	c9 01       	movw	r24, r18
     e76:	8e 1b       	sub	r24, r30
     e78:	9f 0b       	sbc	r25, r31
     e7a:	88 0f       	add	r24, r24
     e7c:	99 1f       	adc	r25, r25
     e7e:	88 0f       	add	r24, r24
     e80:	99 1f       	adc	r25, r25
     e82:	64 e6       	ldi	r22, 0x64	; 100
     e84:	70 e0       	ldi	r23, 0x00	; 0
     e86:	10 d1       	rcall	.+544    	; 0x10a8 <__udivmodhi4>
     e88:	26 1b       	sub	r18, r22
     e8a:	37 0b       	sbc	r19, r23
     e8c:	30 93 71 00 	sts	0x0071, r19
     e90:	20 93 70 00 	sts	0x0070, r18
     e94:	e6 0f       	add	r30, r22
     e96:	f7 1f       	adc	r31, r23
     e98:	f0 93 6f 00 	sts	0x006F, r31
     e9c:	e0 93 6e 00 	sts	0x006E, r30
     ea0:	9e df       	rcall	.-196    	; 0xdde <write_storage()>
     ea2:	ca cb       	rjmp	.-2156   	; 0x638 <setup_to_rt()>

00000ea4 <setup>:
     ea4:	a1 e0       	ldi	r26, 0x01	; 1
     ea6:	b0 e0       	ldi	r27, 0x00	; 0
     ea8:	e7 e5       	ldi	r30, 0x57	; 87
     eaa:	f7 e0       	ldi	r31, 0x07	; 7
     eac:	55 c1       	rjmp	.+682    	; 0x1158 <__prologue_saves__+0x1e>
     eae:	f8 94       	cli
     eb0:	19 be       	out	0x39, r1	; 57
     eb2:	1f bc       	out	0x2f, r1	; 47
     eb4:	12 e0       	ldi	r17, 0x02	; 2
     eb6:	1e bd       	out	0x2e, r17	; 46
     eb8:	18 ba       	out	0x18, r1	; 24
     eba:	81 e3       	ldi	r24, 0x31	; 49
     ebc:	87 bb       	out	0x17, r24	; 23
     ebe:	8a e2       	ldi	r24, 0x2A	; 42
     ec0:	85 bb       	out	0x15, r24	; 21
     ec2:	8a e3       	ldi	r24, 0x3A	; 58
     ec4:	84 bb       	out	0x14, r24	; 20
     ec6:	80 e1       	ldi	r24, 0x10	; 16
     ec8:	82 bb       	out	0x12, r24	; 18
     eca:	80 e3       	ldi	r24, 0x30	; 48
     ecc:	81 bb       	out	0x11, r24	; 17
     ece:	37 98       	cbi	0x06, 7	; 6
     ed0:	80 b7       	in	r24, 0x30	; 48
     ed2:	88 60       	ori	r24, 0x08	; 8
     ed4:	80 bf       	out	0x30, r24	; 48
     ed6:	0a da       	rcall	.-3052   	; 0x2ec <free_spin()>
     ed8:	95 9a       	sbi	0x12, 5	; 18
     eda:	ac 9a       	sbi	0x15, 4	; 21
     edc:	c0 9a       	sbi	0x18, 0	; 24
     ede:	85 e0       	ldi	r24, 0x05	; 5
     ee0:	90 e0       	ldi	r25, 0x00	; 0
     ee2:	69 d9       	rcall	.-3374   	; 0x1b6 <__delay_ms(unsigned int)>
     ee4:	95 98       	cbi	0x12, 5	; 18
     ee6:	ac 98       	cbi	0x15, 4	; 21
     ee8:	c0 98       	cbi	0x18, 0	; 24
     eea:	92 9a       	sbi	0x12, 2	; 18
     eec:	85 b7       	in	r24, 0x35	; 53
     eee:	8c 7f       	andi	r24, 0xFC	; 252
     ef0:	81 60       	ori	r24, 0x01	; 1
     ef2:	85 bf       	out	0x35, r24	; 53
     ef4:	8b b7       	in	r24, 0x3b	; 59
     ef6:	80 64       	ori	r24, 0x40	; 64
     ef8:	8b bf       	out	0x3b, r24	; 59
     efa:	10 92 91 00 	sts	0x0091, r1
     efe:	10 92 90 00 	sts	0x0090, r1
     f02:	28 ee       	ldi	r18, 0xE8	; 232
     f04:	33 e0       	ldi	r19, 0x03	; 3
     f06:	30 93 73 00 	sts	0x0073, r19
     f0a:	20 93 72 00 	sts	0x0072, r18
     f0e:	88 ed       	ldi	r24, 0xD8	; 216
     f10:	93 e0       	ldi	r25, 0x03	; 3
     f12:	90 93 6b 00 	sts	0x006B, r25
     f16:	80 93 6a 00 	sts	0x006A, r24
     f1a:	88 ef       	ldi	r24, 0xF8	; 248
     f1c:	97 e0       	ldi	r25, 0x07	; 7
     f1e:	90 93 6d 00 	sts	0x006D, r25
     f22:	80 93 6c 00 	sts	0x006C, r24
     f26:	30 93 6f 00 	sts	0x006F, r19
     f2a:	20 93 6e 00 	sts	0x006E, r18
     f2e:	80 ed       	ldi	r24, 0xD0	; 208
     f30:	97 e0       	ldi	r25, 0x07	; 7
     f32:	90 93 71 00 	sts	0x0071, r25
     f36:	80 93 70 00 	sts	0x0070, r24
     f3a:	10 93 74 00 	sts	0x0074, r17
     f3e:	8f ef       	ldi	r24, 0xFF	; 255
     f40:	90 e0       	ldi	r25, 0x00	; 0
     f42:	90 93 bd 00 	sts	0x00BD, r25
     f46:	80 93 bc 00 	sts	0x00BC, r24
     f4a:	88 e7       	ldi	r24, 0x78	; 120
     f4c:	90 e0       	ldi	r25, 0x00	; 0
     f4e:	90 93 bf 00 	sts	0x00BF, r25
     f52:	80 93 be 00 	sts	0x00BE, r24
     f56:	8f ef       	ldi	r24, 0xFF	; 255
     f58:	9f ef       	ldi	r25, 0xFF	; 255
     f5a:	90 93 97 00 	sts	0x0097, r25
     f5e:	80 93 96 00 	sts	0x0096, r24
     f62:	8d e1       	ldi	r24, 0x1D	; 29
     f64:	89 83       	std	Y+1, r24	; 0x01
     f66:	81 e0       	ldi	r24, 0x01	; 1
     f68:	2e d0       	rcall	.+92     	; 0xfc6 <nvram_open>
     f6a:	ce 01       	movw	r24, r28
     f6c:	01 96       	adiw	r24, 0x01	; 1
     f6e:	61 e0       	ldi	r22, 0x01	; 1
     f70:	70 e0       	ldi	r23, 0x00	; 0
     f72:	2f d0       	rcall	.+94     	; 0xfd2 <nvram_read>
     f74:	2d d0       	rcall	.+90     	; 0xfd0 <nvram_close>
     f76:	89 81       	ldd	r24, Y+1	; 0x01
     f78:	8d 31       	cpi	r24, 0x1D	; 29
     f7a:	19 f1       	breq	.+70     	; 0xfc2 <setup+0x11e>
     f7c:	78 94       	sei
     f7e:	10 92 85 00 	sts	0x0085, r1
     f82:	10 92 84 00 	sts	0x0084, r1
     f86:	44 24       	eor	r4, r4
     f88:	55 24       	eor	r5, r5
     f8a:	0f 7e       	andi	r16, 0xEF	; 239
     f8c:	55 db       	rcall	.-2390   	; 0x638 <setup_to_rt()>
     f8e:	8a ef       	ldi	r24, 0xFA	; 250
     f90:	90 e0       	ldi	r25, 0x00	; 0
     f92:	11 d9       	rcall	.-3550   	; 0x1b6 <__delay_ms(unsigned int)>
     f94:	eb db       	rcall	.-2090   	; 0x76c <startup_sound()>
     f96:	38 df       	rcall	.-400    	; 0xe08 <check_for_stick_cal()>
     f98:	80 91 bb 00 	lds	r24, 0x00BB
     f9c:	81 30       	cpi	r24, 0x01	; 1
     f9e:	21 f0       	breq	.+8      	; 0xfa8 <setup+0x104>
     fa0:	21 96       	adiw	r28, 0x01	; 1
     fa2:	e3 e0       	ldi	r30, 0x03	; 3
     fa4:	f5 c0       	rjmp	.+490    	; 0x1190 <__epilogue_restores__+0x1e>
     fa6:	0f c0       	rjmp	.+30     	; 0xfc6 <nvram_open>
     fa8:	8c e0       	ldi	r24, 0x0C	; 12
     faa:	6e e1       	ldi	r22, 0x1E	; 30
     fac:	ae db       	rcall	.-2212   	; 0x70a <beep(unsigned char, unsigned char)>
     fae:	8a e0       	ldi	r24, 0x0A	; 10
     fb0:	66 e4       	ldi	r22, 0x46	; 70
     fb2:	ab db       	rcall	.-2218   	; 0x70a <beep(unsigned char, unsigned char)>
     fb4:	89 e0       	ldi	r24, 0x09	; 9
     fb6:	6a e0       	ldi	r22, 0x0A	; 10
     fb8:	a8 db       	rcall	.-2224   	; 0x70a <beep(unsigned char, unsigned char)>
     fba:	21 96       	adiw	r28, 0x01	; 1
     fbc:	e3 e0       	ldi	r30, 0x03	; 3
     fbe:	e8 c0       	rjmp	.+464    	; 0x1190 <__epilogue_restores__+0x1e>
     fc0:	02 c0       	rjmp	.+4      	; 0xfc6 <nvram_open>
     fc2:	f8 de       	rcall	.-528    	; 0xdb4 <read_storage()>
     fc4:	db cf       	rjmp	.-74     	; 0xf7c <setup+0xd8>

00000fc6 <nvram_open>:
     fc6:	10 92 ca 00 	sts	0x00CA, r1
     fca:	10 92 c9 00 	sts	0x00C9, r1
     fce:	08 95       	ret

00000fd0 <nvram_close>:
     fd0:	08 95       	ret

00000fd2 <nvram_read>:
     fd2:	0f 93       	push	r16
     fd4:	1f 93       	push	r17
     fd6:	8b 01       	movw	r16, r22
     fd8:	60 91 c9 00 	lds	r22, 0x00C9
     fdc:	70 91 ca 00 	lds	r23, 0x00CA
     fe0:	a8 01       	movw	r20, r16
     fe2:	e2 d0       	rcall	.+452    	; 0x11a8 <__eerd_block_m8>
     fe4:	80 91 c9 00 	lds	r24, 0x00C9
     fe8:	90 91 ca 00 	lds	r25, 0x00CA
     fec:	80 0f       	add	r24, r16
     fee:	91 1f       	adc	r25, r17
     ff0:	90 93 ca 00 	sts	0x00CA, r25
     ff4:	80 93 c9 00 	sts	0x00C9, r24
     ff8:	1f 91       	pop	r17
     ffa:	0f 91       	pop	r16
     ffc:	08 95       	ret

00000ffe <nvram_write>:
     ffe:	a0 e0       	ldi	r26, 0x00	; 0
    1000:	b0 e0       	ldi	r27, 0x00	; 0
    1002:	e4 e0       	ldi	r30, 0x04	; 4
    1004:	f8 e0       	ldi	r31, 0x08	; 8
    1006:	a3 c0       	rjmp	.+326    	; 0x114e <__prologue_saves__+0x14>
    1008:	9c 01       	movw	r18, r24
    100a:	6b 01       	movw	r12, r22
    100c:	80 91 c9 00 	lds	r24, 0x00C9
    1010:	90 91 ca 00 	lds	r25, 0x00CA
    1014:	61 15       	cp	r22, r1
    1016:	71 05       	cpc	r23, r1
    1018:	b9 f0       	breq	.+46     	; 0x1048 <nvram_write+0x4a>
    101a:	8c 01       	movw	r16, r24
    101c:	79 01       	movw	r14, r18
    101e:	eb 01       	movw	r28, r22
    1020:	05 c0       	rjmp	.+10     	; 0x102c <nvram_write+0x2e>
    1022:	0f 5f       	subi	r16, 0xFF	; 255
    1024:	1f 4f       	sbci	r17, 0xFF	; 255
    1026:	08 94       	sec
    1028:	e1 1c       	adc	r14, r1
    102a:	f1 1c       	adc	r15, r1
    102c:	c8 01       	movw	r24, r16
    102e:	cc d0       	rcall	.+408    	; 0x11c8 <__eerd_byte_m8>
    1030:	f7 01       	movw	r30, r14
    1032:	60 81       	ld	r22, Z
    1034:	86 17       	cp	r24, r22
    1036:	11 f0       	breq	.+4      	; 0x103c <nvram_write+0x3e>
    1038:	c8 01       	movw	r24, r16
    103a:	ce d0       	rcall	.+412    	; 0x11d8 <__eewr_byte_m8>
    103c:	21 97       	sbiw	r28, 0x01	; 1
    103e:	89 f7       	brne	.-30     	; 0x1022 <nvram_write+0x24>
    1040:	80 91 c9 00 	lds	r24, 0x00C9
    1044:	90 91 ca 00 	lds	r25, 0x00CA
    1048:	8c 0d       	add	r24, r12
    104a:	9d 1d       	adc	r25, r13
    104c:	90 93 ca 00 	sts	0x00CA, r25
    1050:	80 93 c9 00 	sts	0x00C9, r24
    1054:	cd b7       	in	r28, 0x3d	; 61
    1056:	de b7       	in	r29, 0x3e	; 62
    1058:	e8 e0       	ldi	r30, 0x08	; 8
    105a:	95 c0       	rjmp	.+298    	; 0x1186 <__epilogue_restores__+0x14>

0000105c <main>:
    105c:	04 d0       	rcall	.+8      	; 0x1066 <init>
    105e:	22 df       	rcall	.-444    	; 0xea4 <setup>
    1060:	00 dc       	rcall	.-2048   	; 0x862 <loop>
    1062:	ff db       	rcall	.-2050   	; 0x862 <loop>
    1064:	fd cf       	rjmp	.-6      	; 0x1060 <main+0x4>

00001066 <init>:
    1066:	78 94       	sei
    1068:	08 95       	ret

0000106a <__mulsi3>:
    106a:	62 9f       	mul	r22, r18
    106c:	d0 01       	movw	r26, r0
    106e:	73 9f       	mul	r23, r19
    1070:	f0 01       	movw	r30, r0
    1072:	82 9f       	mul	r24, r18
    1074:	e0 0d       	add	r30, r0
    1076:	f1 1d       	adc	r31, r1
    1078:	64 9f       	mul	r22, r20
    107a:	e0 0d       	add	r30, r0
    107c:	f1 1d       	adc	r31, r1
    107e:	92 9f       	mul	r25, r18
    1080:	f0 0d       	add	r31, r0
    1082:	83 9f       	mul	r24, r19
    1084:	f0 0d       	add	r31, r0
    1086:	74 9f       	mul	r23, r20
    1088:	f0 0d       	add	r31, r0
    108a:	65 9f       	mul	r22, r21
    108c:	f0 0d       	add	r31, r0
    108e:	99 27       	eor	r25, r25
    1090:	72 9f       	mul	r23, r18
    1092:	b0 0d       	add	r27, r0
    1094:	e1 1d       	adc	r30, r1
    1096:	f9 1f       	adc	r31, r25
    1098:	63 9f       	mul	r22, r19
    109a:	b0 0d       	add	r27, r0
    109c:	e1 1d       	adc	r30, r1
    109e:	f9 1f       	adc	r31, r25
    10a0:	bd 01       	movw	r22, r26
    10a2:	cf 01       	movw	r24, r30
    10a4:	11 24       	eor	r1, r1
    10a6:	08 95       	ret

000010a8 <__udivmodhi4>:
    10a8:	aa 1b       	sub	r26, r26
    10aa:	bb 1b       	sub	r27, r27
    10ac:	51 e1       	ldi	r21, 0x11	; 17
    10ae:	07 c0       	rjmp	.+14     	; 0x10be <__udivmodhi4_ep>

000010b0 <__udivmodhi4_loop>:
    10b0:	aa 1f       	adc	r26, r26
    10b2:	bb 1f       	adc	r27, r27
    10b4:	a6 17       	cp	r26, r22
    10b6:	b7 07       	cpc	r27, r23
    10b8:	10 f0       	brcs	.+4      	; 0x10be <__udivmodhi4_ep>
    10ba:	a6 1b       	sub	r26, r22
    10bc:	b7 0b       	sbc	r27, r23

000010be <__udivmodhi4_ep>:
    10be:	88 1f       	adc	r24, r24
    10c0:	99 1f       	adc	r25, r25
    10c2:	5a 95       	dec	r21
    10c4:	a9 f7       	brne	.-22     	; 0x10b0 <__udivmodhi4_loop>
    10c6:	80 95       	com	r24
    10c8:	90 95       	com	r25
    10ca:	bc 01       	movw	r22, r24
    10cc:	cd 01       	movw	r24, r26
    10ce:	08 95       	ret

000010d0 <__divmodhi4>:
    10d0:	97 fb       	bst	r25, 7
    10d2:	09 2e       	mov	r0, r25
    10d4:	07 26       	eor	r0, r23
    10d6:	0a d0       	rcall	.+20     	; 0x10ec <__divmodhi4_neg1>
    10d8:	77 fd       	sbrc	r23, 7
    10da:	04 d0       	rcall	.+8      	; 0x10e4 <__divmodhi4_neg2>
    10dc:	e5 df       	rcall	.-54     	; 0x10a8 <__udivmodhi4>
    10de:	06 d0       	rcall	.+12     	; 0x10ec <__divmodhi4_neg1>
    10e0:	00 20       	and	r0, r0
    10e2:	1a f4       	brpl	.+6      	; 0x10ea <__divmodhi4_exit>

000010e4 <__divmodhi4_neg2>:
    10e4:	70 95       	com	r23
    10e6:	61 95       	neg	r22
    10e8:	7f 4f       	sbci	r23, 0xFF	; 255

000010ea <__divmodhi4_exit>:
    10ea:	08 95       	ret

000010ec <__divmodhi4_neg1>:
    10ec:	f6 f7       	brtc	.-4      	; 0x10ea <__divmodhi4_exit>
    10ee:	90 95       	com	r25
    10f0:	81 95       	neg	r24
    10f2:	9f 4f       	sbci	r25, 0xFF	; 255
    10f4:	08 95       	ret

000010f6 <__udivmodsi4>:
    10f6:	a1 e2       	ldi	r26, 0x21	; 33
    10f8:	1a 2e       	mov	r1, r26
    10fa:	aa 1b       	sub	r26, r26
    10fc:	bb 1b       	sub	r27, r27
    10fe:	fd 01       	movw	r30, r26
    1100:	0d c0       	rjmp	.+26     	; 0x111c <__udivmodsi4_ep>

00001102 <__udivmodsi4_loop>:
    1102:	aa 1f       	adc	r26, r26
    1104:	bb 1f       	adc	r27, r27
    1106:	ee 1f       	adc	r30, r30
    1108:	ff 1f       	adc	r31, r31
    110a:	a2 17       	cp	r26, r18
    110c:	b3 07       	cpc	r27, r19
    110e:	e4 07       	cpc	r30, r20
    1110:	f5 07       	cpc	r31, r21
    1112:	20 f0       	brcs	.+8      	; 0x111c <__udivmodsi4_ep>
    1114:	a2 1b       	sub	r26, r18
    1116:	b3 0b       	sbc	r27, r19
    1118:	e4 0b       	sbc	r30, r20
    111a:	f5 0b       	sbc	r31, r21

0000111c <__udivmodsi4_ep>:
    111c:	66 1f       	adc	r22, r22
    111e:	77 1f       	adc	r23, r23
    1120:	88 1f       	adc	r24, r24
    1122:	99 1f       	adc	r25, r25
    1124:	1a 94       	dec	r1
    1126:	69 f7       	brne	.-38     	; 0x1102 <__udivmodsi4_loop>
    1128:	60 95       	com	r22
    112a:	70 95       	com	r23
    112c:	80 95       	com	r24
    112e:	90 95       	com	r25
    1130:	9b 01       	movw	r18, r22
    1132:	ac 01       	movw	r20, r24
    1134:	bd 01       	movw	r22, r26
    1136:	cf 01       	movw	r24, r30
    1138:	08 95       	ret

0000113a <__prologue_saves__>:
    113a:	2f 92       	push	r2
    113c:	3f 92       	push	r3
    113e:	4f 92       	push	r4
    1140:	5f 92       	push	r5
    1142:	6f 92       	push	r6
    1144:	7f 92       	push	r7
    1146:	8f 92       	push	r8
    1148:	9f 92       	push	r9
    114a:	af 92       	push	r10
    114c:	bf 92       	push	r11
    114e:	cf 92       	push	r12
    1150:	df 92       	push	r13
    1152:	ef 92       	push	r14
    1154:	ff 92       	push	r15
    1156:	0f 93       	push	r16
    1158:	1f 93       	push	r17
    115a:	cf 93       	push	r28
    115c:	df 93       	push	r29
    115e:	cd b7       	in	r28, 0x3d	; 61
    1160:	de b7       	in	r29, 0x3e	; 62
    1162:	ca 1b       	sub	r28, r26
    1164:	db 0b       	sbc	r29, r27
    1166:	0f b6       	in	r0, 0x3f	; 63
    1168:	f8 94       	cli
    116a:	de bf       	out	0x3e, r29	; 62
    116c:	0f be       	out	0x3f, r0	; 63
    116e:	cd bf       	out	0x3d, r28	; 61
    1170:	09 94       	ijmp

00001172 <__epilogue_restores__>:
    1172:	2a 88       	ldd	r2, Y+18	; 0x12
    1174:	39 88       	ldd	r3, Y+17	; 0x11
    1176:	48 88       	ldd	r4, Y+16	; 0x10
    1178:	5f 84       	ldd	r5, Y+15	; 0x0f
    117a:	6e 84       	ldd	r6, Y+14	; 0x0e
    117c:	7d 84       	ldd	r7, Y+13	; 0x0d
    117e:	8c 84       	ldd	r8, Y+12	; 0x0c
    1180:	9b 84       	ldd	r9, Y+11	; 0x0b
    1182:	aa 84       	ldd	r10, Y+10	; 0x0a
    1184:	b9 84       	ldd	r11, Y+9	; 0x09
    1186:	c8 84       	ldd	r12, Y+8	; 0x08
    1188:	df 80       	ldd	r13, Y+7	; 0x07
    118a:	ee 80       	ldd	r14, Y+6	; 0x06
    118c:	fd 80       	ldd	r15, Y+5	; 0x05
    118e:	0c 81       	ldd	r16, Y+4	; 0x04
    1190:	1b 81       	ldd	r17, Y+3	; 0x03
    1192:	aa 81       	ldd	r26, Y+2	; 0x02
    1194:	b9 81       	ldd	r27, Y+1	; 0x01
    1196:	ce 0f       	add	r28, r30
    1198:	d1 1d       	adc	r29, r1
    119a:	0f b6       	in	r0, 0x3f	; 63
    119c:	f8 94       	cli
    119e:	de bf       	out	0x3e, r29	; 62
    11a0:	0f be       	out	0x3f, r0	; 63
    11a2:	cd bf       	out	0x3d, r28	; 61
    11a4:	ed 01       	movw	r28, r26
    11a6:	08 95       	ret

000011a8 <__eerd_block_m8>:
    11a8:	dc 01       	movw	r26, r24
    11aa:	cb 01       	movw	r24, r22

000011ac <__eerd_blraw_m8>:
    11ac:	fc 01       	movw	r30, r24
    11ae:	e1 99       	sbic	0x1c, 1	; 28
    11b0:	fe cf       	rjmp	.-4      	; 0x11ae <__eerd_blraw_m8+0x2>
    11b2:	06 c0       	rjmp	.+12     	; 0x11c0 <__eerd_blraw_m8+0x14>
    11b4:	ff bb       	out	0x1f, r31	; 31
    11b6:	ee bb       	out	0x1e, r30	; 30
    11b8:	e0 9a       	sbi	0x1c, 0	; 28
    11ba:	31 96       	adiw	r30, 0x01	; 1
    11bc:	0d b2       	in	r0, 0x1d	; 29
    11be:	0d 92       	st	X+, r0
    11c0:	41 50       	subi	r20, 0x01	; 1
    11c2:	50 40       	sbci	r21, 0x00	; 0
    11c4:	b8 f7       	brcc	.-18     	; 0x11b4 <__eerd_blraw_m8+0x8>
    11c6:	08 95       	ret

000011c8 <__eerd_byte_m8>:
    11c8:	e1 99       	sbic	0x1c, 1	; 28
    11ca:	fe cf       	rjmp	.-4      	; 0x11c8 <__eerd_byte_m8>
    11cc:	9f bb       	out	0x1f, r25	; 31
    11ce:	8e bb       	out	0x1e, r24	; 30
    11d0:	e0 9a       	sbi	0x1c, 0	; 28
    11d2:	99 27       	eor	r25, r25
    11d4:	8d b3       	in	r24, 0x1d	; 29
    11d6:	08 95       	ret

000011d8 <__eewr_byte_m8>:
    11d8:	26 2f       	mov	r18, r22

000011da <__eewr_r18_m8>:
    11da:	e1 99       	sbic	0x1c, 1	; 28
    11dc:	fe cf       	rjmp	.-4      	; 0x11da <__eewr_r18_m8>
    11de:	9f bb       	out	0x1f, r25	; 31
    11e0:	8e bb       	out	0x1e, r24	; 30
    11e2:	2d bb       	out	0x1d, r18	; 29
    11e4:	0f b6       	in	r0, 0x3f	; 63
    11e6:	f8 94       	cli
    11e8:	e2 9a       	sbi	0x1c, 2	; 28
    11ea:	e1 9a       	sbi	0x1c, 1	; 28
    11ec:	0f be       	out	0x3f, r0	; 63
    11ee:	01 96       	adiw	r24, 0x01	; 1
    11f0:	08 95       	ret

000011f2 <_exit>:
    11f2:	f8 94       	cli

000011f4 <__stop_program>:
    11f4:	ff cf       	rjmp	.-2      	; 0x11f4 <__stop_program>
